Certificate:
    Data:
        Version: 3 (0x2)
        Serial Number:
            fd:7f:20:7a:ae:24:d3:4a:2a:84:12:91:b8:aa:12:92
        Signature Algorithm: sha256WithRSAEncryption
        Issuer: C=ES, O=Teleco, CN=Root CA
        Validity
            Not Before: Oct 17 13:24:51 2022 GMT
            Not After : Oct 14 13:24:51 2032 GMT
        Subject: C=ES, O=Teleco, CN=cliente
        Subject Public Key Info:
            Public Key Algorithm: rsaEncryption
                RSA Public-Key: (2048 bit)
                Modulus:
                    00:8d:e7:da:c3:7a:db:d9:32:87:94:e2:9c:aa:14:
                    35:98:aa:db:fb:5b:fc:a7:29:09:1c:c8:5a:9f:e0:
                    a3:08:ff:88:d8:91:0d:67:a7:0c:15:8c:b5:b9:74:
                    4a:a6:a6:77:bb:e7:4e:93:0c:9c:0e:db:10:89:7e:
                    54:dd:4c:79:e5:8c:24:a0:cf:2f:61:1f:9c:57:50:
                    b3:e0:8a:c7:14:db:17:ff:24:60:a0:82:bf:09:54:
                    14:17:02:ae:43:30:43:09:e0:31:22:ad:4c:f5:57:
                    6c:bb:09:50:40:87:7d:fe:52:e4:b9:c2:d5:ec:41:
                    dd:6f:b2:10:41:1d:3f:ee:3b:3e:fa:f3:99:2e:01:
                    d0:27:6f:d0:26:65:d2:63:ed:69:3f:e0:1a:c6:72:
                    9d:fc:83:6e:c6:77:61:12:5f:cd:3c:3f:88:13:f0:
                    3d:d6:c9:d6:24:db:b0:6e:ae:7f:8d:8f:85:a2:48:
                    00:30:7d:a7:fc:54:02:75:ea:ed:70:37:87:0f:c0:
                    a3:32:da:d3:b6:cd:b0:6b:c9:b6:50:03:44:f4:c5:
                    72:b8:b8:c2:90:e9:6b:d3:d7:73:20:b6:16:1a:13:
                    ed:c2:a5:43:1c:7c:08:bf:e9:73:69:98:1f:3b:33:
                    44:e9:e3:9f:f2:89:71:36:f4:aa:e7:33:61:89:30:
                    85:eb
                Exponent: 65537 (0x10001)
        X509v3 extensions:
            Authority Information Access: 
                CA Issuers - URI:http://root-ca.teleco.es/root-ca.crt
                OCSP - URI:http://ocsp.root-ca.teleco.es:9080

            X509v3 Authority Key Identifier: 
                keyid:E5:1A:6F:D7:58:14:13:08:7B:F1:CB:CB:15:2C:92:04:BF:FD:78:F8

            X509v3 Basic Constraints: critical
                CA:FALSE
            X509v3 CRL Distribution Points: 

                Full Name:
                  URI:http://root-ca.teleco.es/root-ca.crl

            X509v3 Extended Key Usage: 
                TLS Web Client Authentication
            X509v3 Key Usage: critical
                Digital Signature
            X509v3 Subject Key Identifier: 
                3B:72:2A:C2:F7:60:EB:F2:E1:C8:01:4A:FA:02:86:3D:6B:97:B1:07
    Signature Algorithm: sha256WithRSAEncryption
         c4:79:ee:9f:68:7d:ab:53:b9:06:bc:84:4f:96:cf:d9:3c:cf:
         c3:ec:0d:49:a2:65:16:ff:62:1d:a7:89:11:b3:87:0f:5c:91:
         74:8d:b0:5b:b4:f0:c5:24:b9:28:5b:7d:6a:87:5e:52:9c:82:
         53:94:88:69:4a:1c:61:0b:f6:64:11:22:60:25:1c:31:83:f1:
         bc:4b:f8:2f:f8:5a:92:ac:83:dd:9b:dc:6b:0d:c1:33:16:ae:
         30:0d:89:57:b8:81:67:00:5e:9f:82:16:17:9c:b0:46:14:55:
         59:f1:76:fd:4d:5e:3d:f9:55:88:bb:df:df:e1:43:86:f3:28:
         a8:63:1f:9b:35:18:eb:3e:12:60:bc:8a:ad:c5:94:d5:3d:a5:
         70:7b:98:be:ff:47:c0:a0:4e:4a:19:81:8d:c6:c8:a3:cf:b3:
         f5:bc:8f:30:56:93:c4:50:71:dd:7f:ee:b5:bd:84:ce:5f:71:
         e2:a3:77:71:5b:ba:53:4b:48:d2:18:36:f7:74:23:45:a8:7f:
         66:8e:2a:31:42:39:50:cf:3a:15:a7:9f:37:41:e0:aa:59:79:
         cc:4f:10:28:f8:c8:7f:e4:fe:67:ee:b4:99:31:a8:7e:46:0c:
         4a:bb:45:52:ec:6e:5f:9a:7b:cf:f5:df:ba:aa:43:12:88:90:
         88:99:aa:93:a0:de:db:69:b7:c7:7e:b5:0a:c8:23:e3:1e:61:
         fb:c9:81:eb:92:0b:de:51:de:19:40:40:5f:92:ed:13:3e:f5:
         f0:b3:34:16:4f:c8:7f:76:e8:b0:c4:58:af:25:b4:aa:88:0a:
         e7:b0:ad:48:69:92:d6:cc:85:f0:a4:6c:5a:86:90:37:1b:f5:
         ec:52:fb:44:ff:7e:ed:3c:08:e4:9f:96:88:34:01:c3:9c:fc:
         25:d2:f9:68:a7:be:85:16:d8:63:5e:f6:3a:36:19:0d:ad:45:
         12:06:69:e8:8f:ac:ff:c7:e8:80:00:4a:b4:8b:b1:eb:6b:9a:
         36:2d:3e:62:9c:db:9b:1a:f2:37:b4:bd:81:8c:34:10:b8:64:
         3b:63:79:e4:d5:c7:74:50:75:1d:43:fc:58:4e:e2:1d:81:c4:
         e0:e4:3f:3c:a5:aa:8e:97:a4:4b:18:e6:87:ef:88:5c:6a:a8:
         15:12:51:1f:7a:9d:77:91:59:97:2d:a5:39:d1:d9:4d:e5:a2:
         3c:94:49:0e:6c:03:ea:af:c2:56:ce:a1:13:f2:91:c7:3d:3a:
         81:31:ab:ae:8c:a0:59:c0:40:47:ed:5f:25:b7:6d:0c:9f:37:
         31:71:d1:b4:be:cd:46:8d:35:75:8a:63:fe:3c:b8:55:dd:50:
         13:ad:f3:66:c8:0d:4b:5f
-----BEGIN CERTIFICATE-----
MIIFDTCCAvWgAwIBAgIRAP1/IHquJNNKKoQSkbiqEpIwDQYJKoZIhvcNAQELBQAw
MDELMAkGA1UEBhMCRVMxDzANBgNVBAoMBlRlbGVjbzEQMA4GA1UEAwwHUm9vdCBD
QTAeFw0yMjEwMTcxMzI0NTFaFw0zMjEwMTQxMzI0NTFaMDAxCzAJBgNVBAYTAkVT
MQ8wDQYDVQQKDAZUZWxlY28xEDAOBgNVBAMMB2NsaWVudGUwggEiMA0GCSqGSIb3
DQEBAQUAA4IBDwAwggEKAoIBAQCN59rDetvZMoeU4pyqFDWYqtv7W/ynKQkcyFqf
4KMI/4jYkQ1npwwVjLW5dEqmpne7506TDJwO2xCJflTdTHnljCSgzy9hH5xXULPg
iscU2xf/JGCggr8JVBQXAq5DMEMJ4DEirUz1V2y7CVBAh33+UuS5wtXsQd1vshBB
HT/uOz7685kuAdAnb9AmZdJj7Wk/4BrGcp38g27Gd2ESX808P4gT8D3WydYk27Bu
rn+Nj4WiSAAwfaf8VAJ16u1wN4cPwKMy2tO2zbBrybZQA0T0xXK4uMKQ6WvT13Mg
thYaE+3CpUMcfAi/6XNpmB87M0Tp45/yiXE29KrnM2GJMIXrAgMBAAGjggEgMIIB
HDBwBggrBgEFBQcBAQRkMGIwMAYIKwYBBQUHMAKGJGh0dHA6Ly9yb290LWNhLnRl
bGVjby5lcy9yb290LWNhLmNydDAuBggrBgEFBQcwAYYiaHR0cDovL29jc3Aucm9v
dC1jYS50ZWxlY28uZXM6OTA4MDAfBgNVHSMEGDAWgBTlGm/XWBQTCHvxy8sVLJIE
v/14+DAMBgNVHRMBAf8EAjAAMDUGA1UdHwQuMCwwKqAooCaGJGh0dHA6Ly9yb290
LWNhLnRlbGVjby5lcy9yb290LWNhLmNybDATBgNVHSUEDDAKBggrBgEFBQcDAjAO
BgNVHQ8BAf8EBAMCB4AwHQYDVR0OBBYEFDtyKsL3YOvy4cgBSvoChj1rl7EHMA0G
CSqGSIb3DQEBCwUAA4ICAQDEee6faH2rU7kGvIRPls/ZPM/D7A1JomUW/2Idp4kR
s4cPXJF0jbBbtPDFJLkoW31qh15SnIJTlIhpShxhC/ZkESJgJRwxg/G8S/gv+FqS
rIPdm9xrDcEzFq4wDYlXuIFnAF6fghYXnLBGFFVZ8Xb9TV49+VWIu9/f4UOG8yio
Yx+bNRjrPhJgvIqtxZTVPaVwe5i+/0fAoE5KGYGNxsijz7P1vI8wVpPEUHHdf+61
vYTOX3Hio3dxW7pTS0jSGDb3dCNFqH9mjioxQjlQzzoVp583QeCqWXnMTxAo+Mh/
5P5n7rSZMah+RgxKu0VS7G5fmnvP9d+6qkMSiJCImaqToN7babfHfrUKyCPjHmH7
yYHrkgveUd4ZQEBfku0TPvXwszQWT8h/duiwxFivJbSqiArnsK1IaZLWzIXwpGxa
hpA3G/XsUvtE/37tPAjkn5aINAHDnPwl0vlop76FFthjXvY6NhkNrUUSBmnoj6z/
x+iAAEq0i7Hra5o2LT5inNubGvI3tL2BjDQQuGQ7Y3nk1cd0UHUdQ/xYTuIdgcTg
5D88paqOl6RLGOaH74hcaqgVElEfep13kVmXLaU50dlN5aI8lEkObAPqr8JWzqET
8pHHPTqBMauujKBZwEBH7V8lt20MnzcxcdG0vs1GjTV1imP+PLhV3VATrfNmyA1L
Xw==
-----END CERTIFICATE-----
