Certificate:
    Data:
        Version: 3 (0x2)
        Serial Number:
            fd:7f:20:7a:ae:24:d3:4a:2a:84:12:91:b8:aa:12:8f
        Signature Algorithm: sha256WithRSAEncryption
        Issuer: C=ES, O=Teleco, CN=Root CA
        Validity
            Not Before: Oct 10 14:14:51 2022 GMT
            Not After : Oct  7 14:14:51 2032 GMT
        Subject: C=ES, O=Teleco, CN=Root CA
        Subject Public Key Info:
            Public Key Algorithm: rsaEncryption
                RSA Public-Key: (4096 bit)
                Modulus:
                    00:ee:aa:49:ed:b5:f2:95:87:9a:22:fa:60:b8:c7:
                    d9:f0:74:57:3a:00:be:c5:7e:33:b2:47:19:20:b0:
                    36:39:d2:8e:27:68:e6:e6:0f:f5:af:74:ff:7b:05:
                    2d:d0:03:2c:b3:ef:90:6d:42:55:cd:1d:88:48:56:
                    fc:76:76:bb:f0:6a:75:87:e4:a3:ca:d9:5c:b4:f3:
                    64:22:bf:37:21:c1:af:62:7f:0a:2f:81:be:b8:d5:
                    1a:2a:7c:73:0a:1d:55:40:b2:54:76:b4:b9:8e:82:
                    ff:28:35:7d:88:25:da:f2:2c:3f:fe:46:01:72:1b:
                    d7:78:c4:9b:db:0d:2b:c0:c9:34:96:a8:c1:74:2d:
                    ad:cd:1d:e3:4a:e9:c8:b1:35:77:b8:65:93:0e:9c:
                    ef:a0:2e:73:10:3e:f7:7f:a1:01:97:0c:15:1a:00:
                    c6:32:9d:3e:4c:d3:8f:1b:f2:ae:19:dd:2e:4c:ee:
                    7f:43:6d:ad:c5:fd:b6:1d:f1:01:53:dd:ff:be:d3:
                    33:ec:b7:fc:c9:37:fd:ff:87:65:b3:9e:ae:93:1c:
                    6d:10:94:27:16:07:16:e6:8b:37:82:7e:ba:a6:f1:
                    92:46:76:1d:ab:92:5c:5a:17:15:91:e5:d5:fc:4a:
                    e4:13:38:4f:d5:b3:95:0d:82:6b:53:31:4c:f9:28:
                    6d:3f:be:ba:f9:aa:7a:fb:e9:29:85:7f:3f:f0:f8:
                    2a:8f:26:50:8b:2a:0a:86:9d:59:99:27:34:8f:e6:
                    e7:4e:75:09:78:53:25:a3:97:b4:91:ea:7b:5d:c0:
                    a9:d9:80:c0:b2:15:c3:77:27:9f:1c:62:dc:cc:a7:
                    2a:89:d3:5a:1f:cd:ec:c2:77:57:09:5d:81:0b:1b:
                    f1:f3:cc:66:5b:81:4e:03:70:07:1c:e2:88:99:3a:
                    87:0f:ec:18:c4:a6:bf:4a:49:3a:f8:5b:12:36:4e:
                    03:47:c7:c0:5c:12:47:f0:2a:05:6c:b8:d9:69:97:
                    de:57:f2:28:f5:1b:16:59:4d:05:f6:61:c9:74:fa:
                    83:68:39:99:f3:ca:12:44:05:92:0b:38:20:ee:6f:
                    dc:2e:74:06:5e:6c:ea:d3:e5:77:89:22:9b:85:fc:
                    f1:5c:54:81:b8:4e:cb:d4:0a:db:4f:67:b2:77:f4:
                    c8:19:e6:b1:d9:7b:e1:2b:6f:2b:67:00:cf:2a:02:
                    92:99:0f:a3:ee:f2:e7:0c:2d:70:01:2c:07:b1:79:
                    e4:2c:de:df:f1:2e:42:7d:5d:8f:f0:84:b1:3f:01:
                    02:c4:a1:d1:74:b3:87:22:65:f0:94:31:5e:af:53:
                    85:03:97:55:83:13:2f:ae:e1:0c:8b:1d:3f:c5:b2:
                    8f:9c:01
                Exponent: 65537 (0x10001)
        X509v3 extensions:
            X509v3 Basic Constraints: critical
                CA:TRUE
            X509v3 Key Usage: critical
                Certificate Sign, CRL Sign
            X509v3 Subject Key Identifier: 
                E5:1A:6F:D7:58:14:13:08:7B:F1:CB:CB:15:2C:92:04:BF:FD:78:F8
    Signature Algorithm: sha256WithRSAEncryption
         c5:d4:ca:6e:80:26:90:d7:2b:8a:9d:a6:94:31:ba:35:3b:33:
         da:a0:6c:a9:a2:8a:8e:0b:9d:24:f1:ff:a0:74:e7:ff:21:c2:
         bc:8e:60:55:53:1a:57:fd:1c:7a:fd:b4:63:81:21:3b:8b:33:
         0e:a2:d4:17:f2:cb:8b:89:44:10:fc:aa:5b:55:d2:c5:0e:f4:
         2a:95:64:e1:0e:07:12:bb:70:d1:8c:e9:5d:f4:e5:05:9f:09:
         4c:a2:27:be:84:d3:d9:79:9e:0e:d6:fe:90:1c:4b:75:68:66:
         86:ad:fc:11:b2:3a:15:72:92:b8:f8:1c:d7:36:7d:2b:f0:19:
         92:3c:4f:df:52:02:0c:3d:10:7b:61:38:c5:3a:5b:3f:50:d6:
         6c:fa:60:71:4f:fb:9f:7d:6c:de:b1:45:f5:63:25:49:fc:55:
         c8:57:5e:f1:38:bc:87:8e:a5:e7:ba:79:e5:5e:62:97:54:63:
         5b:58:72:d7:1a:71:fe:4f:15:87:52:f6:85:16:f0:85:8e:1c:
         58:9d:d7:30:6d:df:1b:d1:f5:6e:6e:b1:17:e2:1a:3b:5d:83:
         c8:a0:fb:0c:87:aa:bb:ac:e8:29:03:ec:21:87:d7:61:f9:24:
         c3:c0:0b:39:b6:f3:11:2f:70:93:87:43:24:e3:14:01:61:ed:
         0f:21:1a:99:b8:83:6e:e9:b2:cc:89:e2:53:d2:0e:8a:69:30:
         0a:e3:5f:74:1e:4e:d6:8f:0a:5b:52:ba:57:86:da:70:c8:de:
         90:d6:00:c2:b0:ca:b5:e4:a7:8e:42:13:53:22:27:33:4b:b6:
         37:6b:95:81:88:a9:55:20:e7:f4:3f:a8:aa:6e:13:7a:6d:8b:
         42:3b:db:05:e5:2f:94:7e:fd:47:9d:a0:eb:30:7b:aa:fb:8f:
         87:ef:a2:3c:79:d6:ac:45:db:28:ac:84:f0:23:5d:9b:8c:28:
         65:96:17:23:b9:5d:65:8b:2c:6e:e8:bc:e8:f5:64:b1:39:0f:
         64:cc:3b:1a:4d:1c:5c:3e:73:85:43:7a:7a:3f:c9:1c:24:13:
         ab:2e:a5:ef:f6:1b:24:5a:8b:c6:c2:df:9a:33:33:8d:a1:98:
         c9:9c:fa:9f:52:05:a5:a7:d5:2f:4f:bd:ad:ca:1f:aa:40:b3:
         f2:9d:d5:58:f2:37:63:6c:d4:c7:6d:00:d3:c1:c5:f2:26:ec:
         72:86:2d:c0:36:e5:66:27:cb:00:a8:6d:9b:bc:c3:6f:99:14:
         55:44:da:ac:04:09:7d:49:9f:43:a4:6c:28:bf:05:90:e5:42:
         89:86:2d:8a:44:fc:a5:3c:f3:9f:9a:d6:d2:1f:29:6a:88:22:
         ea:32:ab:7d:05:c5:e1:2a
-----BEGIN CERTIFICATE-----
MIIFLTCCAxWgAwIBAgIRAP1/IHquJNNKKoQSkbiqEo8wDQYJKoZIhvcNAQELBQAw
MDELMAkGA1UEBhMCRVMxDzANBgNVBAoMBlRlbGVjbzEQMA4GA1UEAwwHUm9vdCBD
QTAeFw0yMjEwMTAxNDE0NTFaFw0zMjEwMDcxNDE0NTFaMDAxCzAJBgNVBAYTAkVT
MQ8wDQYDVQQKDAZUZWxlY28xEDAOBgNVBAMMB1Jvb3QgQ0EwggIiMA0GCSqGSIb3
DQEBAQUAA4ICDwAwggIKAoICAQDuqknttfKVh5oi+mC4x9nwdFc6AL7FfjOyRxkg
sDY50o4naObmD/WvdP97BS3QAyyz75BtQlXNHYhIVvx2drvwanWH5KPK2Vy082Qi
vzchwa9ifwovgb641RoqfHMKHVVAslR2tLmOgv8oNX2IJdryLD/+RgFyG9d4xJvb
DSvAyTSWqMF0La3NHeNK6cixNXe4ZZMOnO+gLnMQPvd/oQGXDBUaAMYynT5M048b
8q4Z3S5M7n9Dba3F/bYd8QFT3f++0zPst/zJN/3/h2Wznq6THG0QlCcWBxbmizeC
frqm8ZJGdh2rklxaFxWR5dX8SuQTOE/Vs5UNgmtTMUz5KG0/vrr5qnr76SmFfz/w
+CqPJlCLKgqGnVmZJzSP5udOdQl4UyWjl7SR6ntdwKnZgMCyFcN3J58cYtzMpyqJ
01ofzezCd1cJXYELG/HzzGZbgU4DcAcc4oiZOocP7BjEpr9KSTr4WxI2TgNHx8Bc
EkfwKgVsuNlpl95X8ij1GxZZTQX2Ycl0+oNoOZnzyhJEBZILOCDub9wudAZebOrT
5XeJIpuF/PFcVIG4TsvUCttPZ7J39MgZ5rHZe+ErbytnAM8qApKZD6Pu8ucMLXAB
LAexeeQs3t/xLkJ9XY/whLE/AQLEodF0s4ciZfCUMV6vU4UDl1WDEy+u4QyLHT/F
so+cAQIDAQABo0IwQDAPBgNVHRMBAf8EBTADAQH/MA4GA1UdDwEB/wQEAwIBBjAd
BgNVHQ4EFgQU5Rpv11gUEwh78cvLFSySBL/9ePgwDQYJKoZIhvcNAQELBQADggIB
AMXUym6AJpDXK4qdppQxujU7M9qgbKmiio4LnSTx/6B05/8hwryOYFVTGlf9HHr9
tGOBITuLMw6i1Bfyy4uJRBD8qltV0sUO9CqVZOEOBxK7cNGM6V305QWfCUyiJ76E
09l5ng7W/pAcS3VoZoat/BGyOhVykrj4HNc2fSvwGZI8T99SAgw9EHthOMU6Wz9Q
1mz6YHFP+599bN6xRfVjJUn8VchXXvE4vIeOpee6eeVeYpdUY1tYctcacf5PFYdS
9oUW8IWOHFid1zBt3xvR9W5usRfiGjtdg8ig+wyHqrus6CkD7CGH12H5JMPACzm2
8xEvcJOHQyTjFAFh7Q8hGpm4g27pssyJ4lPSDoppMArjX3QeTtaPCltSuleG2nDI
3pDWAMKwyrXkp45CE1MiJzNLtjdrlYGIqVUg5/Q/qKpuE3pti0I72wXlL5R+/Ued
oOswe6r7j4fvojx51qxF2yishPAjXZuMKGWWFyO5XWWLLG7ovOj1ZLE5D2TMOxpN
HFw+c4VDeno/yRwkE6supe/2GyRai8bC35ozM42hmMmc+p9SBaWn1S9Pva3KH6pA
s/Kd1VjyN2Ns1MdtANPBxfIm7HKGLcA25WYnywCobZu8w2+ZFFVE2qwECX1Jn0Ok
bCi/BZDlQomGLYpE/KU885+a1tIfKWqIIuoyq30FxeEq
-----END CERTIFICATE-----
