Certificate:
    Data:
        Version: 3 (0x2)
        Serial Number:
            fd:7f:20:7a:ae:24:d3:4a:2a:84:12:91:b8:aa:12:90
        Signature Algorithm: sha256WithRSAEncryption
        Issuer: C=ES, O=Teleco, CN=Root CA
        Validity
            Not Before: Oct 10 14:22:34 2022 GMT
            Not After : Oct  7 14:22:34 2032 GMT
        Subject: C=ES, O=Teleco, CN=server
        Subject Public Key Info:
            Public Key Algorithm: rsaEncryption
                RSA Public-Key: (2048 bit)
                Modulus:
                    00:b4:43:0b:fa:f1:6c:7c:f1:c8:b2:ee:e8:a1:6b:
                    96:d2:58:fa:c8:8f:83:82:9b:1c:11:5d:f8:1e:ef:
                    5e:eb:a2:7c:2a:c4:69:8d:0b:ea:ee:32:b8:6e:94:
                    11:c1:f1:7e:c3:c1:fb:e8:1f:23:61:b5:12:a6:56:
                    c2:04:19:54:83:bc:58:01:18:1b:e4:95:d8:db:a8:
                    3f:98:b1:a1:59:e7:6f:6a:48:b5:7d:5f:56:49:72:
                    62:74:67:9c:6f:fd:10:a8:35:99:58:43:e0:84:14:
                    14:ff:b1:33:6c:ff:7d:cb:70:07:7e:cb:92:21:8b:
                    59:70:3c:70:aa:43:b1:72:6c:d4:5b:14:06:02:31:
                    7e:13:7e:a3:77:d4:8a:98:a9:dc:06:39:b1:a9:71:
                    ae:66:1f:3b:0b:32:dd:8a:c7:35:04:59:3d:25:50:
                    8e:46:a9:22:dc:b9:70:e9:71:34:b5:07:fe:c8:43:
                    b1:a7:6e:22:4e:6c:76:30:8b:5b:c9:9d:13:4a:15:
                    f2:f8:7f:e6:dc:68:89:a3:be:f7:18:ba:d2:79:f6:
                    c4:e5:44:a5:a5:09:66:86:66:36:66:37:2f:a0:63:
                    a2:7c:6c:a7:e0:9f:2f:26:da:ad:db:98:03:a0:ba:
                    b2:9e:bd:53:93:15:d8:78:28:f0:1c:03:3a:ba:a3:
                    e1:e9
                Exponent: 65537 (0x10001)
        X509v3 extensions:
            Authority Information Access: 
                CA Issuers - URI:http://root-ca.teleco.es/root-ca.crt
                OCSP - URI:http://ocsp.root-ca.teleco.es:9080

            X509v3 Authority Key Identifier: 
                keyid:E5:1A:6F:D7:58:14:13:08:7B:F1:CB:CB:15:2C:92:04:BF:FD:78:F8

            X509v3 Basic Constraints: critical
                CA:FALSE
            X509v3 CRL Distribution Points: 

                Full Name:
                  URI:http://root-ca.teleco.es/root-ca.crl

            X509v3 Extended Key Usage: 
                TLS Web Client Authentication, TLS Web Server Authentication
            X509v3 Key Usage: critical
                Digital Signature, Key Encipherment
            X509v3 Subject Key Identifier: 
                81:6B:D9:77:07:72:26:FA:C6:DB:89:0E:DB:08:1E:E9:7E:04:DE:00
    Signature Algorithm: sha256WithRSAEncryption
         1e:5d:b1:9a:c9:d2:c2:55:d1:5e:75:6f:c6:0e:47:65:4b:4e:
         d2:ad:89:b4:b2:b3:ae:20:79:3b:45:27:01:40:22:d5:2e:ce:
         40:53:26:69:d0:84:36:bd:31:22:95:7f:e8:43:8e:a9:10:1e:
         d1:95:a4:ca:93:d9:77:93:43:6a:40:1a:56:82:68:30:da:03:
         48:c1:13:cb:6d:cc:a8:5c:b2:a5:d9:84:37:3c:d5:5f:3a:ed:
         15:04:76:97:a3:dd:18:3b:7b:0b:55:35:4c:f2:22:d9:47:a1:
         c6:cd:4c:24:f3:f2:c3:da:f6:f3:df:d8:61:60:a2:b1:37:12:
         55:b1:73:c4:d2:0f:80:3b:a7:b4:3f:67:be:2e:74:30:1c:4f:
         bf:d9:0a:7b:b1:12:10:3d:85:6d:ab:ec:10:90:4c:45:4a:39:
         b3:85:0a:1e:3c:50:b0:35:f4:07:a5:eb:43:b5:bd:16:d1:0e:
         85:66:d7:89:74:d2:15:8b:f2:88:cf:11:5e:d1:c8:7e:5e:0d:
         ec:8c:10:eb:e9:60:b7:fa:15:79:02:f6:92:31:ba:83:13:54:
         90:f8:50:f5:f8:b9:09:d5:4d:8c:dd:5c:49:0d:fb:4c:10:67:
         3b:65:63:b5:00:80:e4:e2:74:a3:21:e2:2d:5c:e8:72:a4:80:
         6e:1e:f8:60:78:9c:40:35:d5:80:bd:35:4f:5a:a2:12:9a:47:
         50:81:7f:07:d3:76:b3:d5:57:a7:f0:be:b1:c4:dc:e1:e3:92:
         b4:da:ad:58:65:5e:4e:4a:ce:97:0c:ad:94:ca:6c:ea:8e:05:
         e9:e0:e8:66:98:a6:2f:4d:14:90:11:f6:c3:73:a2:48:64:68:
         88:1f:f8:68:18:c5:3c:d8:c5:46:97:bd:8c:d3:ab:1c:f8:32:
         de:ca:01:3b:b9:c8:77:d4:a4:e6:51:86:5d:ce:d4:08:b2:70:
         83:be:45:22:a6:26:f9:a9:75:ff:ff:d2:76:1a:fc:f5:04:c4:
         e9:c0:34:45:4f:80:4f:89:99:66:2f:ef:1f:b9:71:c1:43:77:
         ae:9c:01:cc:43:5b:7a:b6:13:ef:7c:da:23:97:b1:63:d9:a7:
         62:a4:3d:23:b7:0e:3d:1d:68:39:34:0b:fc:9b:7b:4b:4f:0f:
         e9:4d:52:e5:11:16:9c:54:43:79:b3:e7:3e:e0:0d:73:60:df:
         63:0a:48:aa:78:31:7b:a0:a2:2b:ef:6c:84:c1:a3:33:fb:81:
         a0:9a:9d:b1:ac:33:d5:4a:13:80:c8:b2:bd:59:c3:1a:97:d7:
         91:6d:51:d7:ad:49:fd:19:87:5f:fe:bb:4c:19:47:fd:07:76:
         65:a7:e6:dc:de:27:c9:68
-----BEGIN CERTIFICATE-----
MIIFFjCCAv6gAwIBAgIRAP1/IHquJNNKKoQSkbiqEpAwDQYJKoZIhvcNAQELBQAw
MDELMAkGA1UEBhMCRVMxDzANBgNVBAoMBlRlbGVjbzEQMA4GA1UEAwwHUm9vdCBD
QTAeFw0yMjEwMTAxNDIyMzRaFw0zMjEwMDcxNDIyMzRaMC8xCzAJBgNVBAYTAkVT
MQ8wDQYDVQQKDAZUZWxlY28xDzANBgNVBAMMBnNlcnZlcjCCASIwDQYJKoZIhvcN
AQEBBQADggEPADCCAQoCggEBALRDC/rxbHzxyLLu6KFrltJY+siPg4KbHBFd+B7v
XuuifCrEaY0L6u4yuG6UEcHxfsPB++gfI2G1EqZWwgQZVIO8WAEYG+SV2NuoP5ix
oVnnb2pItX1fVklyYnRnnG/9EKg1mVhD4IQUFP+xM2z/fctwB37LkiGLWXA8cKpD
sXJs1FsUBgIxfhN+o3fUipip3AY5salxrmYfOwsy3YrHNQRZPSVQjkapIty5cOlx
NLUH/shDsaduIk5sdjCLW8mdE0oV8vh/5txoiaO+9xi60nn2xOVEpaUJZoZmNmY3
L6Bjonxsp+CfLybarduYA6C6sp69U5MV2Hgo8BwDOrqj4ekCAwEAAaOCASowggEm
MHAGCCsGAQUFBwEBBGQwYjAwBggrBgEFBQcwAoYkaHR0cDovL3Jvb3QtY2EudGVs
ZWNvLmVzL3Jvb3QtY2EuY3J0MC4GCCsGAQUFBzABhiJodHRwOi8vb2NzcC5yb290
LWNhLnRlbGVjby5lczo5MDgwMB8GA1UdIwQYMBaAFOUab9dYFBMIe/HLyxUskgS/
/Xj4MAwGA1UdEwEB/wQCMAAwNQYDVR0fBC4wLDAqoCigJoYkaHR0cDovL3Jvb3Qt
Y2EudGVsZWNvLmVzL3Jvb3QtY2EuY3JsMB0GA1UdJQQWMBQGCCsGAQUFBwMCBggr
BgEFBQcDATAOBgNVHQ8BAf8EBAMCBaAwHQYDVR0OBBYEFIFr2XcHcib6xtuJDtsI
Hul+BN4AMA0GCSqGSIb3DQEBCwUAA4ICAQAeXbGaydLCVdFedW/GDkdlS07SrYm0
srOuIHk7RScBQCLVLs5AUyZp0IQ2vTEilX/oQ46pEB7RlaTKk9l3k0NqQBpWgmgw
2gNIwRPLbcyoXLKl2YQ3PNVfOu0VBHaXo90YO3sLVTVM8iLZR6HGzUwk8/LD2vbz
39hhYKKxNxJVsXPE0g+AO6e0P2e+LnQwHE+/2Qp7sRIQPYVtq+wQkExFSjmzhQoe
PFCwNfQHpetDtb0W0Q6FZteJdNIVi/KIzxFe0ch+Xg3sjBDr6WC3+hV5AvaSMbqD
E1SQ+FD1+LkJ1U2M3VxJDftMEGc7ZWO1AIDk4nSjIeItXOhypIBuHvhgeJxANdWA
vTVPWqISmkdQgX8H03az1Ven8L6xxNzh45K02q1YZV5OSs6XDK2UymzqjgXp4Ohm
mKYvTRSQEfbDc6JIZGiIH/hoGMU82MVGl72M06sc+DLeygE7uch31KTmUYZdztQI
snCDvkUipib5qXX//9J2Gvz1BMTpwDRFT4BPiZlmL+8fuXHBQ3eunAHMQ1t6thPv
fNojl7Fj2adipD0jtw49HWg5NAv8m3tLTw/pTVLlERacVEN5s+c+4A1zYN9jCkiq
eDF7oKIr72yEwaMz+4Ggmp2xrDPVShOAyLK9WcMal9eRbVHXrUn9GYdf/rtMGUf9
B3Zlp+bc3ifJaA==
-----END CERTIFICATE-----
