Certificate:
    Data:
        Version: 3 (0x2)
        Serial Number:
            fd:7f:20:7a:ae:24:d3:4a:2a:84:12:91:b8:aa:12:95
        Signature Algorithm: sha256WithRSAEncryption
        Issuer: C=ES, O=Teleco, CN=Root CA
        Validity
            Not Before: Dec 16 10:37:02 2022 GMT
            Not After : Dec 13 10:37:02 2032 GMT
        Subject: C=ES, O=Teleco, CN=Sub CA
        Subject Public Key Info:
            Public Key Algorithm: rsaEncryption
                Public-Key: (4096 bit)
                Modulus:
                    00:c7:3e:50:d6:4e:54:a4:40:b7:21:99:2a:03:2e:
                    ab:d5:8b:5e:6f:15:f1:c8:42:eb:b3:11:b1:a8:5d:
                    02:46:46:0b:39:b9:df:ec:8f:1d:fd:9b:43:d0:bb:
                    ae:1f:cc:38:42:45:98:2b:a8:7f:da:12:57:e6:85:
                    0b:3d:c0:16:3b:72:4c:fc:25:44:b1:64:4a:fb:11:
                    e3:0f:3d:72:20:12:7c:70:aa:49:2d:f9:8c:f6:c9:
                    e9:27:5e:88:b0:b9:a4:74:25:f4:1a:f0:14:43:62:
                    81:db:20:53:a0:f0:de:4c:cc:d7:90:be:49:d9:76:
                    1b:47:c2:80:b6:4b:6a:c7:53:da:81:89:8f:e8:b4:
                    7f:45:26:ff:fd:9d:61:4f:09:26:fb:df:e6:c7:21:
                    24:27:71:0d:7b:a2:c4:4a:08:7b:81:f8:01:ab:5d:
                    59:75:08:df:65:8f:7e:97:3c:7c:0d:ed:a6:8c:91:
                    44:24:38:8d:16:7c:0c:fe:c0:bc:cd:19:7c:a1:b3:
                    f9:96:ea:a8:05:48:f5:bc:57:01:ea:94:66:4c:ac:
                    98:b3:50:fd:9e:18:fa:74:98:93:03:bb:b7:87:89:
                    24:82:ac:22:3e:d9:f0:57:11:ac:d0:b5:30:37:15:
                    87:05:c3:f4:65:0e:34:13:fa:7a:d0:20:29:6d:45:
                    2a:6c:f9:cb:e6:e8:84:38:01:d8:97:c3:24:d0:2b:
                    1e:c6:7f:d5:af:84:68:9c:36:b6:86:0d:b1:7a:50:
                    e7:54:fc:01:01:52:9a:c7:bc:e9:50:4a:29:f0:15:
                    c4:5b:9e:90:03:c3:f6:3d:94:01:dd:92:6a:27:4d:
                    d6:ea:54:c7:2e:6b:f3:a7:5c:3b:fe:19:6c:09:1d:
                    5a:c4:37:8e:f8:f8:35:04:de:c2:79:0e:8e:5b:43:
                    18:0c:92:36:21:e3:64:cb:af:05:2f:a3:d1:11:02:
                    ea:80:86:97:cf:be:a2:b2:2c:01:9a:40:de:a3:6a:
                    65:71:87:82:9d:61:51:7e:e8:53:92:fc:4c:7f:8f:
                    bc:64:d5:dd:9b:15:b4:68:cd:33:f2:0f:fd:e6:2a:
                    9c:f1:5a:68:34:7a:a0:cb:93:37:7f:04:90:a8:bc:
                    dc:90:00:f7:90:8d:9b:01:fe:f4:07:92:f6:5e:1e:
                    46:c1:66:6d:b6:2c:87:13:3b:99:89:ea:be:de:1b:
                    d7:14:4f:df:88:df:22:c4:f0:1b:73:0a:43:5c:a6:
                    61:34:c6:2f:9c:68:5a:0b:9a:17:07:84:4a:57:92:
                    8a:b3:0a:f0:9a:49:58:94:00:93:6e:8b:56:1a:25:
                    19:59:1b:5e:93:7e:12:e9:2c:15:e8:a6:2d:a7:fb:
                    11:d1:e1
                Exponent: 65537 (0x10001)
        X509v3 extensions:
            Authority Information Access: 
                CA Issuers - URI:http://root-ca.teleco.es/root-ca.crt
                OCSP - URI:http://ocsp.root-ca.teleco.es:9080
            X509v3 Authority Key Identifier: 
                E5:1A:6F:D7:58:14:13:08:7B:F1:CB:CB:15:2C:92:04:BF:FD:78:F8
            X509v3 Basic Constraints: critical
                CA:TRUE, pathlen:0
            X509v3 CRL Distribution Points: 
                Full Name:
                  URI:http://root-ca.teleco.es/root-ca.crl
            X509v3 Extended Key Usage: 
                TLS Web Client Authentication, TLS Web Server Authentication
            X509v3 Key Usage: critical
                Certificate Sign, CRL Sign
            X509v3 Name Constraints: 
                Permitted:
                  DNS:example.com
                  DNS:example.org
                Excluded:
                  IP:0.0.0.0/0.0.0.0
                  IP:0:0:0:0:0:0:0:0/0:0:0:0:0:0:0:0
            X509v3 Subject Key Identifier: 
                1F:A4:22:E2:86:5C:0F:57:46:9E:58:84:F5:9D:F9:51:AC:CF:A0:BE
    Signature Algorithm: sha256WithRSAEncryption
    Signature Value:
        da:41:6a:6e:4b:43:04:37:d7:6b:37:b7:84:8b:f4:60:a2:68:
        4c:bc:09:94:75:0d:b9:7e:e7:9e:77:72:d3:a2:7a:4f:a1:d9:
        73:8c:2c:2e:cb:b9:8f:7b:a3:e4:0d:66:0b:9f:aa:e3:92:22:
        d5:b9:6b:ff:d6:75:d0:32:75:4e:03:73:48:4b:a4:bc:55:b8:
        6b:a4:b3:04:4e:ec:44:b5:3b:52:2b:88:20:e4:b2:c2:f8:1a:
        90:91:47:da:2b:d2:4b:72:f5:79:7e:ed:80:43:1f:7d:e7:73:
        c8:26:a8:86:04:fd:a9:05:d4:1c:9e:7a:8c:cb:bc:2a:03:e8:
        0d:6d:4a:c5:ea:36:12:17:cd:8e:6c:eb:af:71:1e:0d:cb:88:
        82:4f:a3:72:e1:94:0f:0e:69:28:1e:83:41:c6:ee:7b:80:f4:
        16:a7:8c:28:21:f7:6d:75:2d:24:ad:ba:63:f5:f9:6b:73:0f:
        f2:e9:aa:f7:8f:1c:1c:07:bd:44:65:24:8b:58:df:99:a6:73:
        9b:b3:d3:bb:de:20:25:b6:47:5f:0d:57:75:12:62:cb:72:55:
        e2:69:32:e0:32:81:04:20:9f:9d:9e:94:68:62:6d:22:5f:4d:
        3d:a6:2f:68:e5:b9:eb:6a:c8:15:f9:35:31:00:e6:61:68:e1:
        58:f7:07:bd:d1:26:7b:20:e6:2b:bc:c2:bf:e5:ea:14:55:bf:
        63:0a:ea:bf:11:cc:cb:17:d7:f9:6e:0f:02:55:50:68:ed:c1:
        c7:64:0b:ba:70:29:1c:5d:f6:c8:32:d5:27:4a:6f:f4:ed:43:
        c7:21:48:05:d4:53:1d:9d:29:35:eb:c2:8e:9a:ce:31:79:83:
        69:e2:0f:7b:31:23:9a:5e:15:f7:9f:bc:df:74:6f:e3:3a:7b:
        e5:9c:be:e7:a4:df:e3:73:34:77:b2:3a:9c:4f:4e:2b:52:8f:
        c3:d7:83:d9:a6:a5:28:4a:90:b1:53:e0:c0:4e:b5:ef:d7:97:
        f7:f0:14:a9:9d:2b:1d:70:c3:be:5c:1d:bc:65:ab:4a:ac:d3:
        a5:7b:6c:a1:cf:47:86:ed:af:e3:01:e9:25:e7:dc:3f:2e:59:
        c6:8c:b7:5d:9f:80:bb:a2:e8:dc:71:23:36:22:b2:20:d8:5a:
        66:42:25:63:e3:03:2e:21:df:81:cd:43:8d:74:e5:3f:63:a4:
        40:05:d2:e4:d5:39:5e:10:7e:6e:fa:93:64:6a:18:6d:57:72:
        bf:89:d8:75:fc:d8:9f:b8:d2:50:6e:8a:cb:88:24:72:ef:0f:
        d1:b6:c2:b7:5c:5f:56:cc:e7:5c:53:a5:69:4f:41:3f:2a:4c:
        85:ff:9a:c1:41:2f:cf:95
-----BEGIN CERTIFICATE-----
MIIGeTCCBGGgAwIBAgIRAP1/IHquJNNKKoQSkbiqEpUwDQYJKoZIhvcNAQELBQAw
MDELMAkGA1UEBhMCRVMxDzANBgNVBAoMBlRlbGVjbzEQMA4GA1UEAwwHUm9vdCBD
QTAeFw0yMjEyMTYxMDM3MDJaFw0zMjEyMTMxMDM3MDJaMC8xCzAJBgNVBAYTAkVT
MQ8wDQYDVQQKDAZUZWxlY28xDzANBgNVBAMMBlN1YiBDQTCCAiIwDQYJKoZIhvcN
AQEBBQADggIPADCCAgoCggIBAMc+UNZOVKRAtyGZKgMuq9WLXm8V8chC67MRsahd
AkZGCzm53+yPHf2bQ9C7rh/MOEJFmCuof9oSV+aFCz3AFjtyTPwlRLFkSvsR4w89
ciASfHCqSS35jPbJ6SdeiLC5pHQl9BrwFENigdsgU6Dw3kzM15C+Sdl2G0fCgLZL
asdT2oGJj+i0f0Um//2dYU8JJvvf5schJCdxDXuixEoIe4H4AatdWXUI32WPfpc8
fA3tpoyRRCQ4jRZ8DP7AvM0ZfKGz+ZbqqAVI9bxXAeqUZkysmLNQ/Z4Y+nSYkwO7
t4eJJIKsIj7Z8FcRrNC1MDcVhwXD9GUONBP6etAgKW1FKmz5y+bohDgB2JfDJNAr
HsZ/1a+EaJw2toYNsXpQ51T8AQFSmse86VBKKfAVxFuekAPD9j2UAd2SaidN1upU
xy5r86dcO/4ZbAkdWsQ3jvj4NQTewnkOjltDGAySNiHjZMuvBS+j0REC6oCGl8++
orIsAZpA3qNqZXGHgp1hUX7oU5L8TH+PvGTV3ZsVtGjNM/IP/eYqnPFaaDR6oMuT
N38EkKi83JAA95CNmwH+9AeS9l4eRsFmbbYshxM7mYnqvt4b1xRP34jfIsTwG3MK
Q1ymYTTGL5xoWguaFweESleSirMK8JpJWJQAk26LVholGVkbXpN+EuksFeimLaf7
EdHhAgMBAAGjggGNMIIBiTBwBggrBgEFBQcBAQRkMGIwMAYIKwYBBQUHMAKGJGh0
dHA6Ly9yb290LWNhLnRlbGVjby5lcy9yb290LWNhLmNydDAuBggrBgEFBQcwAYYi
aHR0cDovL29jc3Aucm9vdC1jYS50ZWxlY28uZXM6OTA4MDAfBgNVHSMEGDAWgBTl
Gm/XWBQTCHvxy8sVLJIEv/14+DASBgNVHRMBAf8ECDAGAQH/AgEAMDUGA1UdHwQu
MCwwKqAooCaGJGh0dHA6Ly9yb290LWNhLnRlbGVjby5lcy9yb290LWNhLmNybDAd
BgNVHSUEFjAUBggrBgEFBQcDAgYIKwYBBQUHAwEwDgYDVR0PAQH/BAQDAgEGMFsG
A1UdHgRUMFKgHjANggtleGFtcGxlLmNvbTANggtleGFtcGxlLm9yZ6EwMAqHCAAA
AAAAAAAAMCKHIAAAAAAAAAAAAAAAAAAAAAAAAAAAAAAAAAAAAAAAAAAAMB0GA1Ud
DgQWBBQfpCLihlwPV0aeWIT1nflRrM+gvjANBgkqhkiG9w0BAQsFAAOCAgEA2kFq
bktDBDfXaze3hIv0YKJoTLwJlHUNuX7nnndy06J6T6HZc4wsLsu5j3uj5A1mC5+q
45Ii1blr/9Z10DJ1TgNzSEukvFW4a6SzBE7sRLU7UiuIIOSywvgakJFH2ivSS3L1
eX7tgEMffedzyCaohgT9qQXUHJ56jMu8KgPoDW1Kxeo2EhfNjmzrr3EeDcuIgk+j
cuGUDw5pKB6DQcbue4D0FqeMKCH3bXUtJK26Y/X5a3MP8umq948cHAe9RGUki1jf
maZzm7PTu94gJbZHXw1XdRJiy3JV4mky4DKBBCCfnZ6UaGJtIl9NPaYvaOW562rI
Ffk1MQDmYWjhWPcHvdEmeyDmK7zCv+XqFFW/YwrqvxHMyxfX+W4PAlVQaO3Bx2QL
unApHF32yDLVJ0pv9O1DxyFIBdRTHZ0pNevCjprOMXmDaeIPezEjml4V95+833Rv
4zp75Zy+56Tf43M0d7I6nE9OK1KPw9eD2aalKEqQsVPgwE6179eX9/AUqZ0rHXDD
vlwdvGWrSqzTpXtsoc9Hhu2v4wHpJefcPy5Zxoy3XZ+Au6Lo3HEjNiKyINhaZkIl
Y+MDLiHfgc1DjXTlP2OkQAXS5NU5XhB+bvqTZGoYbVdyv4nYdfzYn7jSUG6Ky4gk
cu8P0bbCt1xfVsznXFOlaU9BPypMhf+awUEvz5U=
-----END CERTIFICATE-----
