Certificate:
    Data:
        Version: 3 (0x2)
        Serial Number:
            fd:7f:20:7a:ae:24:d3:4a:2a:84:12:91:b8:aa:12:91
        Signature Algorithm: sha256WithRSAEncryption
        Issuer: C=ES, O=Teleco, CN=Root CA
        Validity
            Not Before: Oct 17 12:37:02 2022 GMT
            Not After : Oct 14 12:37:02 2032 GMT
        Subject: C=ES, O=Teleco, CN=servidor
        Subject Public Key Info:
            Public Key Algorithm: rsaEncryption
                RSA Public-Key: (2048 bit)
                Modulus:
                    00:ac:c3:80:30:ca:94:60:16:91:ee:2a:21:bd:44:
                    30:f9:67:87:e5:05:de:92:20:9a:31:7d:0b:b6:0a:
                    43:b0:7e:73:e9:65:3c:e1:da:b3:f9:06:72:c1:4b:
                    78:97:04:3c:02:a8:fe:9a:39:38:5b:f4:cf:c8:7e:
                    74:21:6e:1e:2f:01:a5:18:74:a4:72:01:bc:4e:50:
                    61:15:73:02:c3:86:6e:34:8b:6c:74:b0:90:86:55:
                    3a:f0:11:0b:ac:a7:3d:ce:90:97:fc:ed:e1:26:aa:
                    2d:1e:aa:0a:6a:e5:03:0f:a8:95:0e:e0:68:36:8b:
                    8f:fe:56:63:83:3f:3c:a9:09:f0:03:ab:d0:c0:73:
                    4f:56:91:06:cc:a4:2e:e5:df:2a:d4:9a:79:bd:81:
                    e5:50:5f:51:00:0a:b5:ec:44:58:22:0d:ea:2c:39:
                    fe:1b:c9:67:27:54:8b:4b:37:c3:e3:13:04:5e:04:
                    10:6d:47:0c:4e:73:43:c5:43:83:a4:1b:96:4c:9e:
                    28:28:b6:4f:18:70:c2:6f:27:e6:8d:b9:11:52:cf:
                    00:93:1e:55:1c:2b:f2:29:e1:42:35:af:31:7d:a7:
                    fa:9c:a0:37:8e:d5:07:b2:a1:91:35:78:3f:d0:7b:
                    3b:f9:c5:64:8b:f5:b5:ca:2d:30:4a:48:4a:44:be:
                    c5:63
                Exponent: 65537 (0x10001)
        X509v3 extensions:
            Authority Information Access: 
                CA Issuers - URI:http://root-ca.teleco.es/root-ca.crt
                OCSP - URI:http://ocsp.root-ca.teleco.es:9080

            X509v3 Authority Key Identifier: 
                keyid:E5:1A:6F:D7:58:14:13:08:7B:F1:CB:CB:15:2C:92:04:BF:FD:78:F8

            X509v3 Basic Constraints: critical
                CA:FALSE
            X509v3 CRL Distribution Points: 

                Full Name:
                  URI:http://root-ca.teleco.es/root-ca.crl

            X509v3 Extended Key Usage: 
                TLS Web Client Authentication, TLS Web Server Authentication
            X509v3 Key Usage: critical
                Digital Signature, Key Encipherment
            X509v3 Subject Key Identifier: 
                78:3F:20:1A:B5:7E:69:81:6D:59:91:C7:1C:D8:64:20:1F:08:7F:EE
    Signature Algorithm: sha256WithRSAEncryption
         bd:27:2a:be:92:3e:b6:cd:45:89:b6:33:6a:93:10:93:72:ca:
         cd:67:dd:3a:2a:5b:52:8f:fd:da:07:53:87:d4:1b:46:5c:51:
         ff:2c:8d:ae:36:98:ba:23:56:b8:b9:31:db:6b:69:b5:6f:4c:
         58:8a:c6:20:44:ca:d2:75:ab:54:7c:d3:f4:d1:81:7a:f1:e9:
         52:4e:cf:e6:26:07:d0:5b:06:ea:86:c5:96:46:bb:c1:13:b7:
         59:cc:d0:94:c4:5a:91:d8:81:b1:ff:9b:d7:27:12:8e:b8:fa:
         ee:b5:32:95:a5:a0:64:b9:8d:0d:ed:9e:72:59:c7:19:1e:13:
         43:7a:ef:12:49:e6:01:e9:0b:f2:ff:1c:07:f3:95:d7:48:91:
         5f:03:08:e2:f0:e8:0c:5b:3a:0a:e1:0f:87:61:8c:53:c5:7f:
         c4:7c:1f:c2:05:96:1b:9b:24:3a:1a:3a:76:9f:40:83:8a:87:
         19:7a:48:cc:5c:a7:8a:4f:11:de:60:2f:c7:49:3b:7e:86:0e:
         b6:73:80:5b:16:b7:65:6d:a7:82:09:8c:04:5b:e2:bc:96:1e:
         48:8b:95:5e:7f:a8:e4:31:40:c3:4c:10:f5:39:e0:89:86:40:
         fb:73:36:e9:a9:e0:78:50:40:40:3b:48:f5:4d:29:2e:2b:1e:
         c5:c2:9e:65:8d:05:8c:34:16:ef:09:df:27:83:93:08:bc:6c:
         64:43:b2:a4:59:46:c3:3a:bd:46:a3:5f:6e:c9:d1:45:82:36:
         e5:3c:47:45:55:ea:74:54:ae:57:5e:c4:c4:a5:17:54:ab:5e:
         9a:ba:76:e1:2e:c7:0e:1a:ae:2d:e6:31:9f:a4:47:84:cf:f9:
         d7:4f:11:94:13:76:23:50:23:e1:2a:a2:90:49:f7:58:02:ce:
         91:fd:04:9a:71:fe:93:20:e9:b7:70:c6:a2:b8:19:10:cb:3e:
         a8:b4:5d:cf:97:45:b3:60:40:80:79:81:5b:e7:80:55:d1:32:
         ac:5d:55:46:34:38:bf:9f:7f:98:ad:00:ae:e7:b9:7f:f8:eb:
         ea:f5:63:43:6e:d0:20:fd:73:a9:b9:a3:c0:52:27:b3:12:0b:
         78:12:16:20:ec:ea:0b:80:39:ec:94:02:4a:ef:be:b1:86:50:
         49:19:a9:60:b9:7e:9b:3b:a3:97:d2:fa:02:74:29:10:34:b1:
         82:e7:15:3d:0c:c2:eb:09:b0:c9:6d:17:c3:7f:ca:4b:9d:f7:
         95:61:a4:98:70:3e:f3:bb:24:30:b1:d9:c7:6e:01:5a:3f:bb:
         ee:af:64:b0:8e:cd:cd:13:3e:cf:eb:d4:b5:ef:25:57:87:19:
         72:be:71:98:e9:61:da:20
-----BEGIN CERTIFICATE-----
MIIFGDCCAwCgAwIBAgIRAP1/IHquJNNKKoQSkbiqEpEwDQYJKoZIhvcNAQELBQAw
MDELMAkGA1UEBhMCRVMxDzANBgNVBAoMBlRlbGVjbzEQMA4GA1UEAwwHUm9vdCBD
QTAeFw0yMjEwMTcxMjM3MDJaFw0zMjEwMTQxMjM3MDJaMDExCzAJBgNVBAYTAkVT
MQ8wDQYDVQQKDAZUZWxlY28xETAPBgNVBAMMCHNlcnZpZG9yMIIBIjANBgkqhkiG
9w0BAQEFAAOCAQ8AMIIBCgKCAQEArMOAMMqUYBaR7iohvUQw+WeH5QXekiCaMX0L
tgpDsH5z6WU84dqz+QZywUt4lwQ8Aqj+mjk4W/TPyH50IW4eLwGlGHSkcgG8TlBh
FXMCw4ZuNItsdLCQhlU68BELrKc9zpCX/O3hJqotHqoKauUDD6iVDuBoNouP/lZj
gz88qQnwA6vQwHNPVpEGzKQu5d8q1Jp5vYHlUF9RAAq17ERYIg3qLDn+G8lnJ1SL
SzfD4xMEXgQQbUcMTnNDxUODpBuWTJ4oKLZPGHDCbyfmjbkRUs8Akx5VHCvyKeFC
Na8xfaf6nKA3jtUHsqGRNXg/0Hs7+cVki/W1yi0wSkhKRL7FYwIDAQABo4IBKjCC
ASYwcAYIKwYBBQUHAQEEZDBiMDAGCCsGAQUFBzAChiRodHRwOi8vcm9vdC1jYS50
ZWxlY28uZXMvcm9vdC1jYS5jcnQwLgYIKwYBBQUHMAGGImh0dHA6Ly9vY3NwLnJv
b3QtY2EudGVsZWNvLmVzOjkwODAwHwYDVR0jBBgwFoAU5Rpv11gUEwh78cvLFSyS
BL/9ePgwDAYDVR0TAQH/BAIwADA1BgNVHR8ELjAsMCqgKKAmhiRodHRwOi8vcm9v
dC1jYS50ZWxlY28uZXMvcm9vdC1jYS5jcmwwHQYDVR0lBBYwFAYIKwYBBQUHAwIG
CCsGAQUFBwMBMA4GA1UdDwEB/wQEAwIFoDAdBgNVHQ4EFgQUeD8gGrV+aYFtWZHH
HNhkIB8If+4wDQYJKoZIhvcNAQELBQADggIBAL0nKr6SPrbNRYm2M2qTEJNyys1n
3ToqW1KP/doHU4fUG0ZcUf8sja42mLojVri5MdtrabVvTFiKxiBEytJ1q1R80/TR
gXrx6VJOz+YmB9BbBuqGxZZGu8ETt1nM0JTEWpHYgbH/m9cnEo64+u61MpWloGS5
jQ3tnnJZxxkeE0N67xJJ5gHpC/L/HAfzlddIkV8DCOLw6AxbOgrhD4dhjFPFf8R8
H8IFlhubJDoaOnafQIOKhxl6SMxcp4pPEd5gL8dJO36GDrZzgFsWt2Vtp4IJjARb
4ryWHkiLlV5/qOQxQMNMEPU54ImGQPtzNump4HhQQEA7SPVNKS4rHsXCnmWNBYw0
Fu8J3yeDkwi8bGRDsqRZRsM6vUajX27J0UWCNuU8R0VV6nRUrldexMSlF1SrXpq6
duEuxw4ari3mMZ+kR4TP+ddPEZQTdiNQI+EqopBJ91gCzpH9BJpx/pMg6bdwxqK4
GRDLPqi0Xc+XRbNgQIB5gVvngFXRMqxdVUY0OL+ff5itAK7nuX/46+r1Y0Nu0CD9
c6m5o8BSJ7MSC3gSFiDs6guAOeyUAkrvvrGGUEkZqWC5fps7o5fS+gJ0KRA0sYLn
FT0MwusJsMltF8N/ykud95VhpJhwPvO7JDCx2cduAVo/u+6vZLCOzc0TPs/r1LXv
JVeHGXK+cZjpYdog
-----END CERTIFICATE-----
