Certificate:
    Data:
        Version: 3 (0x2)
        Serial Number:
            fd:7f:20:7a:ae:24:d3:4a:2a:84:12:91:b8:aa:12:97
        Signature Algorithm: sha256WithRSAEncryption
        Issuer: C=ES, O=Teleco, CN=Root CA
        Validity
            Not Before: Dec 23 00:18:08 2022 GMT
            Not After : Dec 20 00:18:08 2032 GMT
        Subject: C=ES, O=Teleco, CN=Sub CA Server
        Subject Public Key Info:
            Public Key Algorithm: rsaEncryption
                Public-Key: (4096 bit)
                Modulus:
                    00:db:78:1e:11:aa:64:55:23:63:82:0f:12:12:e4:
                    76:3c:38:4f:1e:e1:1f:73:89:07:23:09:ca:de:89:
                    f3:f4:c3:24:4a:ad:31:0c:a8:9c:ff:73:0e:eb:e2:
                    ec:b4:e1:b7:26:6f:5d:d5:0b:46:39:8b:06:26:93:
                    0a:72:cc:ce:97:52:af:db:79:59:4d:c1:3f:e0:06:
                    ef:b2:11:9d:8e:5c:86:27:54:81:07:56:8a:ae:1c:
                    55:61:5e:c9:8e:80:12:4c:ba:a9:cd:ed:99:59:f2:
                    4f:4f:a9:a2:cc:16:51:c9:db:4b:ab:04:b2:cd:2c:
                    d8:c4:18:06:3c:f2:9a:38:9c:c4:fe:5e:0f:e2:76:
                    73:18:fa:3a:63:bf:d3:49:af:7d:8a:58:c8:20:47:
                    be:d3:8a:98:76:77:c1:13:2a:e5:a2:1f:f1:62:a9:
                    63:83:1f:7b:ea:e6:52:dc:08:eb:c4:9b:2a:12:b8:
                    9c:72:a6:30:7e:1b:f2:ec:db:6f:b0:c9:f3:ce:a4:
                    98:88:56:a5:1b:15:6a:7e:c6:8f:19:2f:8a:c1:cf:
                    3c:ed:de:8f:00:65:21:f9:42:4d:3a:c1:60:56:28:
                    20:2d:90:bf:a4:13:d6:75:a5:d8:73:22:dc:2e:06:
                    01:07:cf:a8:76:90:a0:86:9c:1d:e9:01:61:f8:2c:
                    5d:67:17:4b:c1:e1:9c:43:0b:00:b3:41:50:3d:de:
                    b5:c6:f8:0e:aa:1d:18:85:f1:e9:11:3c:9c:ae:11:
                    de:29:e2:a0:eb:86:ae:67:cf:87:60:74:18:11:1d:
                    d3:40:dc:6f:c1:8f:77:57:6a:f8:4d:d2:bb:c3:c7:
                    92:6c:bf:8e:c3:95:33:a3:2a:ab:82:5f:8c:7c:83:
                    08:6f:23:02:09:be:80:d4:76:c5:ba:b8:8f:6b:bf:
                    10:78:8e:54:df:37:40:fe:e9:33:60:a8:ed:14:63:
                    e4:79:c6:5f:11:85:ca:39:84:26:ed:37:a4:0d:51:
                    dd:1c:87:cc:2a:1c:fa:c6:7f:f3:76:1a:5c:82:d6:
                    25:b5:48:81:e4:f2:e1:8e:a0:74:42:85:17:b7:91:
                    36:6f:b4:29:dd:7f:4d:6c:9a:e0:98:0c:ee:54:9f:
                    76:bb:d4:9a:c9:c8:50:5a:20:dc:98:43:64:7c:bf:
                    c7:13:93:8a:5f:44:d0:56:b0:ac:9d:34:cc:eb:b9:
                    c8:5a:cb:d3:8b:7c:7a:56:e8:da:80:91:26:86:91:
                    9c:91:7e:4b:93:2c:50:6a:4b:ee:6d:a9:fa:c3:28:
                    9d:c2:f4:c1:a7:ca:73:d2:fa:14:71:8a:50:bb:51:
                    43:7c:5e:b3:d3:f2:ca:6d:f8:da:4a:49:40:b1:9c:
                    3f:00:5b
                Exponent: 65537 (0x10001)
        X509v3 extensions:
            Authority Information Access: 
                CA Issuers - URI:http://root-ca.teleco.es/root-ca.crt
                OCSP - URI:http://ocsp.root-ca.teleco.es:9080
            X509v3 Authority Key Identifier: 
                E5:1A:6F:D7:58:14:13:08:7B:F1:CB:CB:15:2C:92:04:BF:FD:78:F8
            X509v3 Basic Constraints: critical
                CA:TRUE, pathlen:0
            X509v3 CRL Distribution Points: 
                Full Name:
                  URI:http://root-ca.teleco.es/root-ca.crl
            X509v3 Extended Key Usage: 
                TLS Web Client Authentication, TLS Web Server Authentication
            X509v3 Key Usage: critical
                Certificate Sign, CRL Sign
            X509v3 Name Constraints: 
                Permitted:
                  DNS:example.com
                  DNS:example.org
                Excluded:
                  IP:0.0.0.0/0.0.0.0
                  IP:0:0:0:0:0:0:0:0/0:0:0:0:0:0:0:0
            X509v3 Subject Key Identifier: 
                06:7D:4D:15:F9:1F:06:EB:4C:70:04:37:8C:F3:17:99:0F:12:D4:39
    Signature Algorithm: sha256WithRSAEncryption
    Signature Value:
        6f:ed:1f:12:67:fe:5c:93:95:9c:f0:f8:70:1e:61:22:07:52:
        f3:d1:2c:0a:9d:9f:85:20:83:b0:5e:b2:ee:b4:08:1f:8b:e2:
        4d:4f:80:48:52:97:8b:c0:0c:47:e4:a6:3c:25:7f:e5:38:0c:
        68:95:ed:b5:9b:94:a9:10:d9:c0:c8:5a:cb:81:95:d4:3a:ad:
        0e:f4:aa:0d:d2:3f:af:f7:c4:6f:43:7e:11:98:c1:9b:51:a2:
        b5:f3:67:a7:f8:4f:7e:45:d2:87:3f:cc:5c:d5:8c:b4:2b:5d:
        65:32:30:92:72:a5:c7:5a:48:b2:a5:8f:87:3f:20:60:df:c3:
        48:aa:2c:16:53:4c:c0:a9:63:e4:12:a6:7c:8e:f8:e2:d2:da:
        6c:75:e5:5f:ad:8f:97:dd:38:b5:4f:35:ed:c2:53:66:05:89:
        1c:9e:62:9f:d2:fa:e4:d9:1c:f4:12:89:96:c0:61:35:99:1d:
        a1:f9:cc:4b:45:53:c4:9d:e8:5d:8a:d7:29:32:fc:c0:4d:12:
        39:05:4f:32:f6:7e:f8:0c:d5:c7:b8:7b:35:ad:c7:e9:f9:33:
        ef:7d:56:55:32:59:bf:5d:99:a2:72:59:02:55:ff:0d:65:cc:
        8a:00:2b:81:a2:52:f7:3f:31:f2:af:41:cf:8a:80:c2:f1:6e:
        04:24:db:e1:0d:f8:bb:de:86:ba:65:43:2c:f0:87:e5:95:90:
        c5:79:79:f3:a5:9a:01:a1:f4:77:17:6b:a9:3b:d7:d6:5d:8f:
        a6:1c:df:96:bf:a6:f1:83:8c:81:bc:9b:69:34:e6:7b:5a:1c:
        10:7e:14:7d:5e:45:a0:7a:d4:7b:56:dc:ad:d8:6d:8d:6c:46:
        e2:b9:22:a2:c2:0c:2c:69:9c:1c:66:ea:6e:ab:bb:cc:e8:e5:
        24:1c:07:c1:bc:cd:cc:ae:a3:d7:8c:69:76:39:ad:af:69:50:
        e0:0f:3b:74:81:0d:c8:07:29:e0:24:7a:5b:9e:9f:2f:21:ca:
        5d:4d:ff:dc:30:04:0d:b4:70:3b:d7:cb:9f:a3:98:15:b5:75:
        71:91:0d:cf:50:a6:9b:ff:94:31:30:18:30:cd:37:a8:27:16:
        10:48:88:e9:45:38:82:dc:16:71:aa:9d:cd:71:3c:cc:44:33:
        dc:e7:21:97:d7:2c:45:20:ea:f8:57:cf:e2:09:e5:ea:81:c7:
        1d:e4:3f:3b:6f:41:ce:fb:5f:22:bf:8f:b5:f9:61:bf:68:16:
        d6:4c:87:55:3e:a7:9a:d9:27:d2:49:c3:72:f0:c8:bb:52:41:
        68:b6:95:32:eb:01:23:26:b8:91:af:55:c1:0a:06:28:e3:e7:
        c6:3b:5b:c1:e5:79:83:69
-----BEGIN CERTIFICATE-----
MIIGgDCCBGigAwIBAgIRAP1/IHquJNNKKoQSkbiqEpcwDQYJKoZIhvcNAQELBQAw
MDELMAkGA1UEBhMCRVMxDzANBgNVBAoMBlRlbGVjbzEQMA4GA1UEAwwHUm9vdCBD
QTAeFw0yMjEyMjMwMDE4MDhaFw0zMjEyMjAwMDE4MDhaMDYxCzAJBgNVBAYTAkVT
MQ8wDQYDVQQKDAZUZWxlY28xFjAUBgNVBAMMDVN1YiBDQSBTZXJ2ZXIwggIiMA0G
CSqGSIb3DQEBAQUAA4ICDwAwggIKAoICAQDbeB4RqmRVI2OCDxIS5HY8OE8e4R9z
iQcjCcreifP0wyRKrTEMqJz/cw7r4uy04bcmb13VC0Y5iwYmkwpyzM6XUq/beVlN
wT/gBu+yEZ2OXIYnVIEHVoquHFVhXsmOgBJMuqnN7ZlZ8k9PqaLMFlHJ20urBLLN
LNjEGAY88po4nMT+Xg/idnMY+jpjv9NJr32KWMggR77Tiph2d8ETKuWiH/FiqWOD
H3vq5lLcCOvEmyoSuJxypjB+G/Ls22+wyfPOpJiIVqUbFWp+xo8ZL4rBzzzt3o8A
ZSH5Qk06wWBWKCAtkL+kE9Z1pdhzItwuBgEHz6h2kKCGnB3pAWH4LF1nF0vB4ZxD
CwCzQVA93rXG+A6qHRiF8ekRPJyuEd4p4qDrhq5nz4dgdBgRHdNA3G/Bj3dXavhN
0rvDx5Jsv47DlTOjKquCX4x8gwhvIwIJvoDUdsW6uI9rvxB4jlTfN0D+6TNgqO0U
Y+R5xl8Rhco5hCbtN6QNUd0ch8wqHPrGf/N2GlyC1iW1SIHk8uGOoHRChRe3kTZv
tCndf01smuCYDO5Un3a71JrJyFBaINyYQ2R8v8cTk4pfRNBWsKydNMzruchay9OL
fHpW6NqAkSaGkZyRfkuTLFBqS+5tqfrDKJ3C9MGnynPS+hRxilC7UUN8XrPT8spt
+NpKSUCxnD8AWwIDAQABo4IBjTCCAYkwcAYIKwYBBQUHAQEEZDBiMDAGCCsGAQUF
BzAChiRodHRwOi8vcm9vdC1jYS50ZWxlY28uZXMvcm9vdC1jYS5jcnQwLgYIKwYB
BQUHMAGGImh0dHA6Ly9vY3NwLnJvb3QtY2EudGVsZWNvLmVzOjkwODAwHwYDVR0j
BBgwFoAU5Rpv11gUEwh78cvLFSySBL/9ePgwEgYDVR0TAQH/BAgwBgEB/wIBADA1
BgNVHR8ELjAsMCqgKKAmhiRodHRwOi8vcm9vdC1jYS50ZWxlY28uZXMvcm9vdC1j
YS5jcmwwHQYDVR0lBBYwFAYIKwYBBQUHAwIGCCsGAQUFBwMBMA4GA1UdDwEB/wQE
AwIBBjBbBgNVHR4EVDBSoB4wDYILZXhhbXBsZS5jb20wDYILZXhhbXBsZS5vcmeh
MDAKhwgAAAAAAAAAADAihyAAAAAAAAAAAAAAAAAAAAAAAAAAAAAAAAAAAAAAAAAA
ADAdBgNVHQ4EFgQUBn1NFfkfButMcAQ3jPMXmQ8S1DkwDQYJKoZIhvcNAQELBQAD
ggIBAG/tHxJn/lyTlZzw+HAeYSIHUvPRLAqdn4Ugg7Besu60CB+L4k1PgEhSl4vA
DEfkpjwlf+U4DGiV7bWblKkQ2cDIWsuBldQ6rQ70qg3SP6/3xG9DfhGYwZtRorXz
Z6f4T35F0oc/zFzVjLQrXWUyMJJypcdaSLKlj4c/IGDfw0iqLBZTTMCpY+QSpnyO
+OLS2mx15V+tj5fdOLVPNe3CU2YFiRyeYp/S+uTZHPQSiZbAYTWZHaH5zEtFU8Sd
6F2K1yky/MBNEjkFTzL2fvgM1ce4ezWtx+n5M+99VlUyWb9dmaJyWQJV/w1lzIoA
K4GiUvc/MfKvQc+KgMLxbgQk2+EN+LvehrplQyzwh+WVkMV5efOlmgGh9HcXa6k7
19Zdj6Yc35a/pvGDjIG8m2k05ntaHBB+FH1eRaB61HtW3K3YbY1sRuK5IqLCDCxp
nBxm6m6ru8zo5SQcB8G8zcyuo9eMaXY5ra9pUOAPO3SBDcgHKeAkelueny8hyl1N
/9wwBA20cDvXy5+jmBW1dXGRDc9Qppv/lDEwGDDNN6gnFhBIiOlFOILcFnGqnc1x
PMxEM9znIZfXLEUg6vhXz+IJ5eqBxx3kPztvQc77XyK/j7X5Yb9oFtZMh1U+p5rZ
J9JJw3LwyLtSQWi2lTLrASMmuJGvVcEKBijj58Y7W8HleYNp
-----END CERTIFICATE-----
