Certificate:
    Data:
        Version: 3 (0x2)
        Serial Number:
            fd:7f:20:7a:ae:24:d3:4a:2a:84:12:91:b8:aa:12:93
        Signature Algorithm: sha256WithRSAEncryption
        Issuer: C=ES, O=Teleco, CN=Root CA
        Validity
            Not Before: Oct 24 14:47:34 2022 GMT
            Not After : Aug 20 14:47:34 2023 GMT
        Subject: C=ES, O=Teleco, CN=OCSP Root Responder
        Subject Public Key Info:
            Public Key Algorithm: rsaEncryption
                Public-Key: (2048 bit)
                Modulus:
                    00:cc:4c:03:08:45:9c:e5:6f:e5:be:c0:17:4d:b4:
                    6e:70:db:16:a8:62:ad:47:19:a1:91:36:d8:db:2f:
                    e4:67:d5:a3:4c:cc:0d:64:87:ec:65:d0:95:d4:92:
                    52:12:c3:86:f6:39:d4:09:55:28:61:be:78:ef:e6:
                    12:23:c7:04:59:4c:75:08:df:1e:04:a1:be:47:3b:
                    48:47:17:86:a2:a3:1f:e2:c0:43:df:e1:8a:f2:b3:
                    81:56:df:c0:32:a0:41:0d:86:16:1f:63:b6:a3:96:
                    5e:a8:ee:6d:ab:10:af:79:25:0a:76:b2:66:5e:c6:
                    c1:4f:05:fc:e1:38:b6:06:af:26:74:24:7c:71:5f:
                    1e:d1:3b:3e:49:be:ab:c8:7d:b2:11:dd:21:c7:fe:
                    f3:63:a6:09:b8:56:50:1b:e1:5c:87:9c:51:f3:1b:
                    f5:5e:ca:28:a0:b1:fe:71:37:f1:16:de:f6:32:a1:
                    82:ca:76:f8:94:2e:b2:ca:88:5f:c4:bd:15:37:b8:
                    26:e7:df:bb:81:79:cf:98:ae:b4:13:cb:e7:cd:6b:
                    2e:ca:35:fb:97:5d:48:b7:7a:6f:18:cb:15:d0:0c:
                    3a:f2:48:b8:e2:13:8d:65:61:4e:69:ec:e1:b5:13:
                    d3:37:40:60:fc:28:cf:45:04:00:5e:35:f9:09:da:
                    55:83
                Exponent: 65537 (0x10001)
        X509v3 extensions:
            X509v3 Authority Key Identifier: 
                E5:1A:6F:D7:58:14:13:08:7B:F1:CB:CB:15:2C:92:04:BF:FD:78:F8
            X509v3 Basic Constraints: critical
                CA:FALSE
            X509v3 Extended Key Usage: 
                OCSP Signing
            X509v3 Key Usage: critical
                Digital Signature
            X509v3 Subject Key Identifier: 
                A2:BD:79:84:BA:12:CA:22:D0:54:87:97:9F:68:81:8A:18:64:A2:1D
    Signature Algorithm: sha256WithRSAEncryption
    Signature Value:
        56:43:cb:e5:5c:07:0b:c7:90:61:25:31:6f:5d:d7:b4:4d:fa:
        64:e2:d0:58:f6:58:26:65:33:71:33:4f:74:aa:4a:23:22:1f:
        b5:17:61:ca:b0:d5:d2:57:c3:80:4f:2b:68:75:57:c5:91:66:
        a8:e6:5a:b5:f2:de:a0:5b:b9:2b:a7:6d:d9:58:7c:75:da:ba:
        fc:1a:68:5a:bd:ce:69:c2:88:9b:d6:4c:31:54:c1:14:e2:36:
        5d:6b:22:a6:3e:53:3d:4f:c4:5c:a4:e7:d2:48:a0:6d:38:c4:
        2c:ec:28:fd:b8:f5:f5:eb:ea:8d:99:63:f5:dd:5c:b2:a3:81:
        bf:22:3e:bd:0b:cc:f4:13:1c:ff:99:8a:b3:43:94:b7:e1:4f:
        6e:a3:e4:d8:7b:87:69:76:38:c9:8a:fe:7a:05:c6:2b:30:e2:
        1d:39:f8:98:d7:da:3b:cb:05:48:80:b6:f3:6b:fa:b8:f4:15:
        8e:97:b4:af:d0:1b:83:06:8e:93:c9:b0:c9:f4:8a:b2:77:fe:
        01:26:48:70:2b:66:51:95:7c:89:4f:aa:26:1e:0e:6a:db:16:
        a7:d2:01:ab:54:fb:18:42:34:2c:a4:f3:84:9a:55:5e:21:b0:
        6b:43:bc:86:a5:dc:29:ad:a6:e1:9b:1b:d1:33:de:16:ef:21:
        29:14:4b:f5:85:20:f3:e7:a1:f6:c8:f5:ab:21:a8:06:c1:9c:
        03:a5:09:f5:3a:c2:30:de:8b:86:50:3a:48:e5:c5:c1:61:cf:
        35:54:cf:f7:c2:c0:4c:c5:03:8e:f0:31:db:e7:45:9e:63:8f:
        cf:b2:9d:e2:14:0d:f3:c9:dd:1d:af:7c:34:c6:e2:6c:66:96:
        9e:80:f9:64:5a:f8:96:7c:37:08:4b:c2:35:e0:50:24:6a:ed:
        ec:34:a6:ee:09:5a:e4:9d:98:b6:3f:81:fe:d5:63:cc:2d:0e:
        5f:bd:42:4d:ef:6d:2d:56:62:d7:f3:0b:21:15:a1:82:af:9f:
        6a:75:7e:4d:20:cb:95:0c:07:d5:d4:55:e8:20:1c:d5:49:85:
        b4:de:1a:b9:12:45:a5:e2:6b:5d:05:bd:00:e4:18:42:e9:3a:
        5b:e9:da:53:96:75:7d:32:0c:f7:72:38:df:ff:f6:7d:c3:a1:
        5d:0a:91:92:34:32:b9:08:72:d9:4d:4f:86:2c:78:ec:05:99:
        d1:32:8a:c3:25:93:05:22:f8:bd:c1:f7:3c:95:01:fd:80:bc:
        a1:a5:45:c8:ab:27:45:65:a7:44:aa:71:49:e9:dd:cf:f1:b4:
        77:e0:6c:61:ea:49:02:bf:ac:b5:2f:92:2d:ae:31:41:5f:b6:
        91:7d:8b:c0:76:31:4f:09
-----BEGIN CERTIFICATE-----
MIIEbDCCAlSgAwIBAgIRAP1/IHquJNNKKoQSkbiqEpMwDQYJKoZIhvcNAQELBQAw
MDELMAkGA1UEBhMCRVMxDzANBgNVBAoMBlRlbGVjbzEQMA4GA1UEAwwHUm9vdCBD
QTAeFw0yMjEwMjQxNDQ3MzRaFw0yMzA4MjAxNDQ3MzRaMDwxCzAJBgNVBAYTAkVT
MQ8wDQYDVQQKDAZUZWxlY28xHDAaBgNVBAMME09DU1AgUm9vdCBSZXNwb25kZXIw
ggEiMA0GCSqGSIb3DQEBAQUAA4IBDwAwggEKAoIBAQDMTAMIRZzlb+W+wBdNtG5w
2xaoYq1HGaGRNtjbL+Rn1aNMzA1kh+xl0JXUklISw4b2OdQJVShhvnjv5hIjxwRZ
THUI3x4Eob5HO0hHF4aiox/iwEPf4Yrys4FW38AyoEENhhYfY7ajll6o7m2rEK95
JQp2smZexsFPBfzhOLYGryZ0JHxxXx7ROz5JvqvIfbIR3SHH/vNjpgm4VlAb4VyH
nFHzG/Veyiigsf5xN/EW3vYyoYLKdviULrLKiF/EvRU3uCbn37uBec+YrrQTy+fN
ay7KNfuXXUi3em8YyxXQDDrySLjiE41lYU5p7OG1E9M3QGD8KM9FBABeNfkJ2lWD
AgMBAAGjdTBzMB8GA1UdIwQYMBaAFOUab9dYFBMIe/HLyxUskgS//Xj4MAwGA1Ud
EwEB/wQCMAAwEwYDVR0lBAwwCgYIKwYBBQUHAwkwDgYDVR0PAQH/BAQDAgeAMB0G
A1UdDgQWBBSivXmEuhLKItBUh5efaIGKGGSiHTANBgkqhkiG9w0BAQsFAAOCAgEA
VkPL5VwHC8eQYSUxb13XtE36ZOLQWPZYJmUzcTNPdKpKIyIftRdhyrDV0lfDgE8r
aHVXxZFmqOZatfLeoFu5K6dt2Vh8ddq6/BpoWr3OacKIm9ZMMVTBFOI2XWsipj5T
PU/EXKTn0kigbTjELOwo/bj19evqjZlj9d1csqOBvyI+vQvM9BMc/5mKs0OUt+FP
bqPk2HuHaXY4yYr+egXGKzDiHTn4mNfaO8sFSIC282v6uPQVjpe0r9AbgwaOk8mw
yfSKsnf+ASZIcCtmUZV8iU+qJh4OatsWp9IBq1T7GEI0LKTzhJpVXiGwa0O8hqXc
Ka2m4Zsb0TPeFu8hKRRL9YUg8+eh9sj1qyGoBsGcA6UJ9TrCMN6LhlA6SOXFwWHP
NVTP98LATMUDjvAx2+dFnmOPz7Kd4hQN88ndHa98NMbibGaWnoD5ZFr4lnw3CEvC
NeBQJGrt7DSm7gla5J2Ytj+B/tVjzC0OX71CTe9tLVZi1/MLIRWhgq+fanV+TSDL
lQwH1dRV6CAc1UmFtN4auRJFpeJrXQW9AOQYQuk6W+naU5Z1fTIM93I43//2fcOh
XQqRkjQyuQhy2U1Phix47AWZ0TKKwyWTBSL4vcH3PJUB/YC8oaVFyKsnRWWnRKpx
Sendz/G0d+BsYepJAr+stS+SLa4xQV+2kX2LwHYxTwk=
-----END CERTIFICATE-----
