Certificate:
    Data:
        Version: 3 (0x2)
        Serial Number:
            fd:7f:20:7a:ae:24:d3:4a:2a:84:12:91:b8:aa:12:94
        Signature Algorithm: sha256WithRSAEncryption
        Issuer: C=ES, O=Teleco, CN=Root CA
        Validity
            Not Before: Dec 10 21:03:44 2022 GMT
            Not After : Dec  7 21:03:44 2032 GMT
        Subject: C=ES, O=Teleco, CN=servidor_2
        Subject Public Key Info:
            Public Key Algorithm: rsaEncryption
                Public-Key: (2048 bit)
                Modulus:
                    00:d0:9e:7a:89:b9:2c:4f:33:de:9a:1a:69:13:4f:
                    8d:e0:c2:d7:7a:9d:24:49:ce:f3:92:72:70:0d:7b:
                    a1:cd:33:3a:7b:e0:f8:a0:ff:c4:c1:e7:b0:f8:39:
                    c2:a1:96:87:64:2a:cd:ce:11:44:be:5b:8a:59:23:
                    21:5f:ce:7c:e2:69:c8:0c:70:c6:71:cc:37:2a:cb:
                    26:75:59:50:3e:e1:cf:a1:eb:1d:4d:95:0c:4b:62:
                    f1:98:8c:a2:e9:47:4d:02:be:83:80:bc:76:a8:ba:
                    74:59:b5:1d:f8:82:e0:67:75:a4:b3:57:29:6d:c3:
                    d0:27:a3:fa:07:d3:38:69:bb:dc:d8:0d:34:70:1d:
                    73:cc:87:99:a1:da:69:68:31:40:16:aa:6f:09:5b:
                    09:a4:39:fb:61:08:ae:cb:c0:87:71:52:89:7e:d8:
                    d6:e1:9c:88:23:2d:08:a3:2d:ae:5a:4d:1e:dd:20:
                    a6:c2:97:88:05:84:ba:46:8f:a2:2e:a2:00:0d:e6:
                    9b:c4:01:a5:c3:8a:3b:fd:71:0d:e5:c8:ea:0c:7e:
                    1c:c0:1b:8b:dc:4c:0a:a5:d2:9b:ac:a1:a3:b9:b1:
                    4a:d1:26:1e:4a:4c:30:7f:23:d3:27:e0:ff:ee:21:
                    54:c2:73:7a:01:84:f3:fd:c3:ec:45:83:69:a1:71:
                    ee:53
                Exponent: 65537 (0x10001)
        X509v3 extensions:
            Authority Information Access: 
                OCSP - URI:http://localhost:9080
            X509v3 Authority Key Identifier: 
                E5:1A:6F:D7:58:14:13:08:7B:F1:CB:CB:15:2C:92:04:BF:FD:78:F8
            X509v3 Basic Constraints: critical
                CA:FALSE
            X509v3 CRL Distribution Points: 
                Full Name:
                  URI:http://root-ca.teleco.es/root-ca.crl
            X509v3 Extended Key Usage: 
                TLS Web Client Authentication, TLS Web Server Authentication
            X509v3 Key Usage: critical
                Digital Signature, Key Encipherment
            X509v3 Subject Key Identifier: 
                98:7B:21:B0:4F:18:B4:76:47:DC:BA:63:96:9D:DD:15:F0:AF:E8:BA
    Signature Algorithm: sha256WithRSAEncryption
    Signature Value:
        79:2c:00:04:dd:cf:0b:44:45:dc:d0:57:80:69:93:ec:9a:55:
        f5:7a:11:ff:ef:fa:78:4a:9f:f0:3b:49:6e:3c:51:e1:cf:6a:
        2d:8b:a0:ae:ea:f1:c4:7a:e6:f4:2a:d1:f1:f0:cf:6a:4b:c5:
        98:43:1d:d3:c4:a9:48:17:e3:88:e4:52:c1:ac:da:26:4a:81:
        fc:d7:c7:15:a1:73:b2:db:17:b7:9c:e9:3b:b5:fe:96:80:09:
        68:d5:72:e4:ef:7e:f6:cd:a5:6b:55:7b:d0:aa:10:0f:8a:6c:
        b7:86:05:91:15:59:c6:06:2d:75:95:2d:d0:b6:f6:5a:9e:02:
        7c:60:b0:b7:f2:b0:65:53:ac:5c:b5:02:82:60:1c:b3:fa:1f:
        2b:46:ac:a7:a0:d1:a7:b9:6b:5c:de:de:f2:cd:08:a9:12:87:
        8a:ff:8f:49:06:d0:2d:79:ca:81:c2:a6:cc:c6:16:99:00:d9:
        13:cb:69:71:14:a6:e7:e8:f7:50:e7:0d:75:a2:d9:24:0f:a5:
        c6:10:24:79:b5:8a:89:84:7b:b6:fc:d3:54:2c:67:99:91:4e:
        51:df:99:e4:54:b1:6f:63:97:b3:2b:f5:d7:ac:51:6c:8b:39:
        93:8a:2c:ad:ef:77:bc:57:45:12:db:07:5c:79:51:75:73:bc:
        d5:a5:f6:a2:da:54:39:e2:7f:26:bb:b5:ef:2c:cc:d1:66:45:
        20:c7:44:1d:78:b8:fa:3c:75:98:c3:a9:cd:55:6c:00:76:8d:
        18:af:8c:a4:bf:db:3d:e8:a2:99:f0:d5:33:1b:47:70:b8:d8:
        78:6e:32:89:cb:ae:c1:fd:ad:56:74:e6:f5:82:da:5f:86:db:
        d8:bc:44:4d:61:b1:7f:14:20:4d:32:c7:e2:11:68:12:85:c9:
        c7:b9:a3:1c:dd:8d:eb:9e:83:cc:f3:21:b5:28:83:3c:29:51:
        64:ff:25:fd:4f:ff:b4:c9:17:c8:0d:ff:7b:ce:00:08:1d:60:
        43:51:d1:89:bb:65:15:c9:91:6e:35:fe:4c:b5:d5:67:0e:a5:
        13:e5:20:44:49:43:d5:cf:1f:c5:91:ad:3a:f6:e9:9a:cf:a3:
        54:42:13:ad:fe:5a:dd:d6:19:44:2a:bf:0a:0a:86:98:fe:07:
        59:55:73:16:32:14:42:56:c3:92:29:4c:f4:a5:07:a1:95:30:
        46:29:61:79:2f:df:06:92:e1:d9:ff:3f:34:da:4a:a5:bd:d4:
        c7:48:2e:7d:e5:3b:bc:52:93:5e:37:aa:80:5f:80:bc:ce:03:
        1d:b5:ab:28:72:02:ed:a6:1a:45:32:cb:44:ee:71:63:17:7f:
        e3:94:5f:5d:d8:4e:c4:01
-----BEGIN CERTIFICATE-----
MIIE2TCCAsGgAwIBAgIRAP1/IHquJNNKKoQSkbiqEpQwDQYJKoZIhvcNAQELBQAw
MDELMAkGA1UEBhMCRVMxDzANBgNVBAoMBlRlbGVjbzEQMA4GA1UEAwwHUm9vdCBD
QTAeFw0yMjEyMTAyMTAzNDRaFw0zMjEyMDcyMTAzNDRaMDMxCzAJBgNVBAYTAkVT
MQ8wDQYDVQQKDAZUZWxlY28xEzARBgNVBAMMCnNlcnZpZG9yXzIwggEiMA0GCSqG
SIb3DQEBAQUAA4IBDwAwggEKAoIBAQDQnnqJuSxPM96aGmkTT43gwtd6nSRJzvOS
cnANe6HNMzp74Pig/8TB57D4OcKhlodkKs3OEUS+W4pZIyFfznziacgMcMZxzDcq
yyZ1WVA+4c+h6x1NlQxLYvGYjKLpR00CvoOAvHaounRZtR34guBndaSzVyltw9An
o/oH0zhpu9zYDTRwHXPMh5mh2mloMUAWqm8JWwmkOfthCK7LwIdxUol+2NbhnIgj
LQijLa5aTR7dIKbCl4gFhLpGj6IuogAN5pvEAaXDijv9cQ3lyOoMfhzAG4vcTAql
0pusoaO5sUrRJh5KTDB/I9Mn4P/uIVTCc3oBhPP9w+xFg2mhce5TAgMBAAGjgeow
gecwMQYIKwYBBQUHAQEEJTAjMCEGCCsGAQUFBzABhhVodHRwOi8vbG9jYWxob3N0
OjkwODAwHwYDVR0jBBgwFoAU5Rpv11gUEwh78cvLFSySBL/9ePgwDAYDVR0TAQH/
BAIwADA1BgNVHR8ELjAsMCqgKKAmhiRodHRwOi8vcm9vdC1jYS50ZWxlY28uZXMv
cm9vdC1jYS5jcmwwHQYDVR0lBBYwFAYIKwYBBQUHAwIGCCsGAQUFBwMBMA4GA1Ud
DwEB/wQEAwIFoDAdBgNVHQ4EFgQUmHshsE8YtHZH3Lpjlp3dFfCv6LowDQYJKoZI
hvcNAQELBQADggIBAHksAATdzwtERdzQV4Bpk+yaVfV6Ef/v+nhKn/A7SW48UeHP
ai2LoK7q8cR65vQq0fHwz2pLxZhDHdPEqUgX44jkUsGs2iZKgfzXxxWhc7LbF7ec
6Tu1/paACWjVcuTvfvbNpWtVe9CqEA+KbLeGBZEVWcYGLXWVLdC29lqeAnxgsLfy
sGVTrFy1AoJgHLP6HytGrKeg0ae5a1ze3vLNCKkSh4r/j0kG0C15yoHCpszGFpkA
2RPLaXEUpufo91DnDXWi2SQPpcYQJHm1iomEe7b801QsZ5mRTlHfmeRUsW9jl7Mr
9desUWyLOZOKLK3vd7xXRRLbB1x5UXVzvNWl9qLaVDnifya7te8szNFmRSDHRB14
uPo8dZjDqc1VbAB2jRivjKS/2z3oopnw1TMbR3C42HhuMonLrsH9rVZ05vWC2l+G
29i8RE1hsX8UIE0yx+IRaBKFyce5oxzdjeueg8zzIbUogzwpUWT/Jf1P/7TJF8gN
/3vOAAgdYENR0Ym7ZRXJkW41/ky11WcOpRPlIERJQ9XPH8WRrTr26ZrPo1RCE63+
Wt3WGUQqvwoKhpj+B1lVcxYyFEJWw5IpTPSlB6GVMEYpYXkv3waS4dn/PzTaSqW9
1MdILn3lO7xSk143qoBfgLzOAx21qyhyAu2mGkUyy0TucWMXf+OUX13YTsQB
-----END CERTIFICATE-----
