Certificate:
    Data:
        Version: 3 (0x2)
        Serial Number:
            fd:7f:20:7a:ae:24:d3:4a:2a:84:12:91:b8:aa:12:98
        Signature Algorithm: sha256WithRSAEncryption
        Issuer: C=ES, O=Teleco, CN=Root CA
        Validity
            Not Before: Dec 23 00:26:37 2022 GMT
            Not After : Dec 20 00:26:37 2032 GMT
        Subject: C=ES, O=Teleco, CN=Sub CA Client
        Subject Public Key Info:
            Public Key Algorithm: rsaEncryption
                Public-Key: (4096 bit)
                Modulus:
                    00:d1:e7:cf:81:a3:90:a9:e3:b9:63:4f:3d:f4:8d:
                    87:8c:56:13:3d:5f:8b:be:b2:fa:ad:7a:6d:31:84:
                    23:09:a2:ec:fd:33:92:42:12:d8:e7:46:96:7d:8e:
                    61:99:41:84:85:5b:bb:55:f6:04:82:18:ed:48:88:
                    ff:83:db:f4:82:0c:6b:70:58:70:26:93:25:fb:65:
                    9c:43:56:f6:34:88:96:93:d6:55:72:d7:6c:cb:2f:
                    45:f3:1f:0d:8c:f8:0c:d2:21:26:29:05:6c:47:aa:
                    e4:eb:85:f9:5d:ca:47:71:22:ee:d6:69:4e:40:ab:
                    9a:69:e6:04:73:7c:75:80:05:1b:5c:61:e0:7f:ee:
                    14:6a:7c:8b:97:04:3b:95:f5:40:61:e9:fd:0b:e2:
                    99:bb:83:41:c3:df:9b:65:61:bf:ae:1f:cc:26:e5:
                    1d:9c:62:e9:f3:e5:2e:d6:35:1c:27:f8:f5:5d:c1:
                    05:36:39:04:3b:7b:46:5d:65:ae:28:05:1f:10:4b:
                    9f:d4:33:44:d6:4c:c6:20:d0:85:4d:68:16:0a:40:
                    e3:ea:d0:a0:aa:04:89:1a:ff:b7:10:48:98:b6:fe:
                    f7:01:5c:62:fd:b8:fd:cb:e1:ef:38:5f:10:28:7f:
                    17:d8:2e:8d:78:8e:88:c0:bc:db:9a:17:86:e3:b7:
                    af:84:14:63:18:c7:12:47:8d:a3:79:28:c2:4b:fe:
                    46:74:7c:2e:ed:ab:4d:c6:58:bd:29:9e:1a:46:8f:
                    5b:3a:bb:87:05:85:68:a1:91:ce:96:1f:7d:54:eb:
                    b3:7a:a3:a0:b6:34:b0:b6:16:bc:5f:cd:1b:7e:fa:
                    b0:91:48:83:8d:ff:be:c5:65:57:13:b4:c2:91:f8:
                    13:62:9c:81:26:45:19:73:71:ce:8e:6d:81:a5:6d:
                    bf:b3:43:c8:df:80:94:f6:bd:98:be:e9:f9:21:c7:
                    42:24:f1:43:be:17:11:a1:58:b8:ea:a6:df:62:72:
                    d0:e0:70:77:40:a4:11:03:da:a0:fe:69:3c:22:7e:
                    cd:80:b2:c6:e0:61:d8:43:e0:37:8a:34:b7:b9:9b:
                    49:a6:56:b6:aa:cc:fb:60:54:7e:2a:49:f2:6f:19:
                    15:2c:78:19:dc:61:5e:9a:dc:ea:96:bb:52:42:a2:
                    45:af:2d:a7:cb:9e:2d:4b:3b:26:9e:60:65:01:f8:
                    2f:69:19:f4:e5:13:8e:d9:98:de:7c:c1:76:99:62:
                    30:84:24:dc:fa:4a:91:d1:8e:a1:94:a2:c1:33:bc:
                    8d:55:34:1b:c6:bc:c2:b5:6e:95:5b:8c:3f:c3:07:
                    c6:a2:c8:e5:03:0a:86:b1:60:a7:53:95:68:30:b1:
                    b7:3c:cd
                Exponent: 65537 (0x10001)
        X509v3 extensions:
            Authority Information Access: 
                CA Issuers - URI:http://root-ca.teleco.es/root-ca.crt
                OCSP - URI:http://ocsp.root-ca.teleco.es:9080
            X509v3 Authority Key Identifier: 
                E5:1A:6F:D7:58:14:13:08:7B:F1:CB:CB:15:2C:92:04:BF:FD:78:F8
            X509v3 Basic Constraints: critical
                CA:TRUE, pathlen:0
            X509v3 CRL Distribution Points: 
                Full Name:
                  URI:http://root-ca.teleco.es/root-ca.crl
            X509v3 Extended Key Usage: 
                TLS Web Client Authentication, TLS Web Server Authentication
            X509v3 Key Usage: critical
                Certificate Sign, CRL Sign
            X509v3 Name Constraints: 
                Permitted:
                  DNS:example.com
                  DNS:example.org
                Excluded:
                  IP:0.0.0.0/0.0.0.0
                  IP:0:0:0:0:0:0:0:0/0:0:0:0:0:0:0:0
            X509v3 Subject Key Identifier: 
                34:D8:77:60:72:33:AF:BF:16:58:21:DD:4F:3D:E1:E9:1E:C8:43:59
    Signature Algorithm: sha256WithRSAEncryption
    Signature Value:
        49:a3:19:63:0b:b7:46:f2:1f:7e:8c:99:97:6d:b8:ad:19:6f:
        eb:75:06:f4:3c:a2:58:c5:ad:ff:95:98:a2:8d:8c:77:68:b8:
        c9:3d:ce:e3:07:64:61:4e:50:dc:a0:23:1a:28:33:a1:9d:e3:
        42:dc:6f:57:49:6e:64:5c:66:8a:19:91:58:ad:d9:b5:e0:fc:
        bd:51:bc:1b:2a:f8:cd:30:a0:e4:8e:22:b1:b2:5f:92:c8:36:
        25:17:7a:4a:7a:c3:ab:0e:e2:17:14:f4:c7:da:b2:c1:a1:75:
        b9:8c:bb:4c:68:1b:d4:62:a2:f9:ee:80:5b:ac:81:d5:3e:ae:
        60:6c:41:6f:4d:53:7f:2a:46:65:3c:16:a7:8f:55:b2:34:2e:
        5b:64:eb:3f:b4:d9:36:50:dc:60:49:92:a1:92:b8:7d:df:6c:
        79:e6:f5:8d:de:84:b0:5a:5c:38:f9:ff:c8:50:5c:0e:46:cd:
        0e:dd:35:35:fa:f1:29:7b:af:55:64:98:8d:72:93:13:b2:f4:
        7f:e9:d3:19:f8:05:08:cb:62:15:8a:fa:aa:8e:cb:d0:fb:28:
        a0:2a:31:34:7f:d6:98:19:cd:3d:1c:eb:a4:6b:7e:be:dd:46:
        43:4c:38:e1:e4:af:b6:cf:2c:21:d4:f2:07:82:4c:94:af:ad:
        28:fe:1e:38:da:8c:2a:bd:98:6d:35:fd:99:7c:ba:68:5f:b0:
        f4:3a:37:3d:ba:d0:b5:a4:5f:3d:74:c3:e3:3d:10:94:e1:42:
        fb:fd:8c:dc:ce:a6:f1:33:b3:4b:13:3c:cf:47:03:15:18:59:
        3e:7b:f2:8c:b9:f1:1c:4d:8a:77:b6:d7:61:8e:7e:7a:24:66:
        c7:00:86:d0:42:6d:45:49:9c:67:75:bc:01:08:cd:d7:f6:aa:
        8f:ac:6d:f4:0b:cc:37:b5:62:ad:a5:32:51:c1:5e:72:43:39:
        85:c0:15:d1:54:e0:78:0d:d5:03:0d:f7:11:d2:30:d6:8c:ad:
        2b:78:17:de:56:d5:49:97:d2:b7:69:7e:5d:c0:d8:1c:7a:a7:
        ec:52:21:1b:dd:fe:a8:07:61:49:f9:26:38:50:e8:07:29:d1:
        a1:47:60:c7:65:f2:48:a1:d4:6f:02:9c:a8:cb:be:85:00:b4:
        4b:35:24:44:77:19:ab:45:17:89:8a:e9:98:96:d6:bb:98:89:
        31:72:6c:7e:e1:44:5e:5d:00:c3:f4:3a:9f:d1:94:fa:df:64:
        be:b3:4b:ca:6a:ad:e6:f1:ca:7d:78:69:cd:4f:ed:e7:21:cd:
        b2:7d:db:0c:64:15:9a:de:c7:f2:38:5e:c9:67:06:ee:e6:23:
        04:c0:5b:b4:5e:4f:5d:4b
-----BEGIN CERTIFICATE-----
MIIGgDCCBGigAwIBAgIRAP1/IHquJNNKKoQSkbiqEpgwDQYJKoZIhvcNAQELBQAw
MDELMAkGA1UEBhMCRVMxDzANBgNVBAoMBlRlbGVjbzEQMA4GA1UEAwwHUm9vdCBD
QTAeFw0yMjEyMjMwMDI2MzdaFw0zMjEyMjAwMDI2MzdaMDYxCzAJBgNVBAYTAkVT
MQ8wDQYDVQQKDAZUZWxlY28xFjAUBgNVBAMMDVN1YiBDQSBDbGllbnQwggIiMA0G
CSqGSIb3DQEBAQUAA4ICDwAwggIKAoICAQDR58+Bo5Cp47ljTz30jYeMVhM9X4u+
svqtem0xhCMJouz9M5JCEtjnRpZ9jmGZQYSFW7tV9gSCGO1IiP+D2/SCDGtwWHAm
kyX7ZZxDVvY0iJaT1lVy12zLL0XzHw2M+AzSISYpBWxHquTrhfldykdxIu7WaU5A
q5pp5gRzfHWABRtcYeB/7hRqfIuXBDuV9UBh6f0L4pm7g0HD35tlYb+uH8wm5R2c
Yunz5S7WNRwn+PVdwQU2OQQ7e0ZdZa4oBR8QS5/UM0TWTMYg0IVNaBYKQOPq0KCq
BIka/7cQSJi2/vcBXGL9uP3L4e84XxAofxfYLo14jojAvNuaF4bjt6+EFGMYxxJH
jaN5KMJL/kZ0fC7tq03GWL0pnhpGj1s6u4cFhWihkc6WH31U67N6o6C2NLC2Frxf
zRt++rCRSION/77FZVcTtMKR+BNinIEmRRlzcc6ObYGlbb+zQ8jfgJT2vZi+6fkh
x0Ik8UO+FxGhWLjqpt9ictDgcHdApBED2qD+aTwifs2AssbgYdhD4DeKNLe5m0mm
VraqzPtgVH4qSfJvGRUseBncYV6a3OqWu1JCokWvLafLni1LOyaeYGUB+C9pGfTl
E47ZmN58wXaZYjCEJNz6SpHRjqGUosEzvI1VNBvGvMK1bpVbjD/DB8aiyOUDCoax
YKdTlWgwsbc8zQIDAQABo4IBjTCCAYkwcAYIKwYBBQUHAQEEZDBiMDAGCCsGAQUF
BzAChiRodHRwOi8vcm9vdC1jYS50ZWxlY28uZXMvcm9vdC1jYS5jcnQwLgYIKwYB
BQUHMAGGImh0dHA6Ly9vY3NwLnJvb3QtY2EudGVsZWNvLmVzOjkwODAwHwYDVR0j
BBgwFoAU5Rpv11gUEwh78cvLFSySBL/9ePgwEgYDVR0TAQH/BAgwBgEB/wIBADA1
BgNVHR8ELjAsMCqgKKAmhiRodHRwOi8vcm9vdC1jYS50ZWxlY28uZXMvcm9vdC1j
YS5jcmwwHQYDVR0lBBYwFAYIKwYBBQUHAwIGCCsGAQUFBwMBMA4GA1UdDwEB/wQE
AwIBBjBbBgNVHR4EVDBSoB4wDYILZXhhbXBsZS5jb20wDYILZXhhbXBsZS5vcmeh
MDAKhwgAAAAAAAAAADAihyAAAAAAAAAAAAAAAAAAAAAAAAAAAAAAAAAAAAAAAAAA
ADAdBgNVHQ4EFgQUNNh3YHIzr78WWCHdTz3h6R7IQ1kwDQYJKoZIhvcNAQELBQAD
ggIBAEmjGWMLt0byH36MmZdtuK0Zb+t1BvQ8oljFrf+VmKKNjHdouMk9zuMHZGFO
UNygIxooM6Gd40Lcb1dJbmRcZooZkVit2bXg/L1RvBsq+M0woOSOIrGyX5LINiUX
ekp6w6sO4hcU9MfassGhdbmMu0xoG9RiovnugFusgdU+rmBsQW9NU38qRmU8FqeP
VbI0Lltk6z+02TZQ3GBJkqGSuH3fbHnm9Y3ehLBaXDj5/8hQXA5GzQ7dNTX68Sl7
r1VkmI1ykxOy9H/p0xn4BQjLYhWK+qqOy9D7KKAqMTR/1pgZzT0c66Rrfr7dRkNM
OOHkr7bPLCHU8geCTJSvrSj+HjjajCq9mG01/Zl8umhfsPQ6Nz260LWkXz10w+M9
EJThQvv9jNzOpvEzs0sTPM9HAxUYWT578oy58RxNine212GOfnokZscAhtBCbUVJ
nGd1vAEIzdf2qo+sbfQLzDe1Yq2lMlHBXnJDOYXAFdFU4HgN1QMN9xHSMNaMrSt4
F95W1UmX0rdpfl3A2Bx6p+xSIRvd/qgHYUn5JjhQ6Acp0aFHYMdl8kih1G8CnKjL
voUAtEs1JER3GatFF4mK6ZiW1ruYiTFybH7hRF5dAMP0Op/RlPrfZL6zS8pqrebx
yn14ac1P7echzbJ92wxkFZrex/I4XslnBu7mIwTAW7ReT11L
-----END CERTIFICATE-----
