Certificate:
    Data:
        Version: 3 (0x2)
        Serial Number:
            fd:7f:20:7a:ae:24:d3:4a:2a:84:12:91:b8:aa:12:96
        Signature Algorithm: sha256WithRSAEncryption
        Issuer: C=ES, O=Teleco, CN=Root CA
        Validity
            Not Before: Dec 21 17:55:35 2022 GMT
            Not After : Dec 18 17:55:35 2032 GMT
        Subject: C=ES, O=Teleco, CN=Sub CA
        Subject Public Key Info:
            Public Key Algorithm: rsaEncryption
                Public-Key: (4096 bit)
                Modulus:
                    00:8f:89:59:60:07:db:3b:18:d6:e9:09:18:22:f4:
                    f4:f0:c2:3a:aa:25:94:44:1e:b7:b8:a0:15:5b:ca:
                    b7:62:67:b9:84:9f:a5:21:3a:3e:06:88:39:14:c6:
                    cc:c7:32:b7:28:71:c3:0d:f7:7a:b6:1e:23:0e:e9:
                    0c:24:5f:39:b5:27:1d:18:d1:a6:bb:30:ad:f6:59:
                    fd:0f:f7:dc:f5:ed:26:2c:90:3f:40:1e:ea:95:84:
                    8b:41:2f:c6:81:a5:df:81:41:e9:6d:60:87:dc:57:
                    fd:67:3c:a3:de:3c:46:f4:94:0c:92:a8:45:f6:8e:
                    bb:1f:71:a1:df:8f:10:73:f2:be:e9:35:6f:13:fe:
                    f5:ca:34:24:35:1b:13:5f:08:25:ed:da:c1:38:bc:
                    de:b8:ae:8b:a3:8a:08:b9:3b:89:61:db:8e:96:18:
                    9d:4f:ab:57:01:37:96:d7:a6:5b:d3:4d:82:21:8a:
                    02:3b:f4:cc:44:1b:c4:9b:21:79:63:ad:ac:dc:5a:
                    98:bd:e2:c2:11:47:9e:b0:64:74:e7:a5:2d:d2:87:
                    bf:38:cd:6a:8a:56:fe:26:1e:3c:55:d7:39:9c:1d:
                    be:ab:a6:a6:35:93:17:c8:c5:14:6a:03:2e:18:45:
                    e8:dc:1e:2f:fd:c0:89:ea:c1:be:af:7e:61:6e:db:
                    4d:b3:cc:63:87:4b:0c:ef:b6:7e:c3:b7:9c:c5:74:
                    3c:97:26:46:4a:3b:1a:a3:ac:06:59:f9:72:17:24:
                    a2:30:b1:e5:a8:e9:e7:ae:5a:a5:8f:f2:c1:6c:b7:
                    97:e0:65:6d:51:76:c2:d6:81:39:c5:0d:0c:b0:12:
                    43:f5:71:42:dd:24:05:80:52:4c:b1:24:b9:73:11:
                    b7:0a:a2:ec:b2:15:c8:1d:b8:ae:0d:52:25:42:84:
                    41:0c:df:41:5b:19:92:7a:24:40:66:35:61:7e:12:
                    e5:0d:5f:88:0e:bf:46:fc:ad:77:48:42:3c:3b:69:
                    2c:9e:91:cd:18:f9:6f:1b:45:9b:1d:00:f8:06:66:
                    79:74:64:8a:9f:63:b9:59:51:0d:71:0e:f4:42:53:
                    46:43:4b:dc:b3:20:bb:dc:4c:5b:dd:ff:1e:29:a7:
                    cc:3f:0b:cd:27:76:eb:80:f8:5c:48:d4:1f:ae:33:
                    bf:98:13:58:49:21:8d:55:61:4d:fb:cc:02:f3:28:
                    bc:ac:ef:cb:3f:d2:64:00:03:cb:76:c3:b7:e6:d3:
                    91:53:13:58:85:c8:41:73:39:d9:b1:15:12:37:a2:
                    d2:08:a7:1a:79:ec:71:a1:91:4e:4f:7d:aa:33:24:
                    16:07:4e:8e:69:54:49:27:5f:36:eb:b3:c9:57:57:
                    f6:05:5d
                Exponent: 65537 (0x10001)
        X509v3 extensions:
            Authority Information Access: 
                CA Issuers - URI:http://root-ca.teleco.es/root-ca.crt
                OCSP - URI:http://ocsp.root-ca.teleco.es:9080
            X509v3 Authority Key Identifier: 
                E5:1A:6F:D7:58:14:13:08:7B:F1:CB:CB:15:2C:92:04:BF:FD:78:F8
            X509v3 Basic Constraints: critical
                CA:TRUE, pathlen:0
            X509v3 CRL Distribution Points: 
                Full Name:
                  URI:http://root-ca.teleco.es/root-ca.crl
            X509v3 Extended Key Usage: 
                TLS Web Client Authentication, TLS Web Server Authentication
            X509v3 Key Usage: critical
                Certificate Sign, CRL Sign
            X509v3 Name Constraints: 
                Permitted:
                  DNS:example.com
                  DNS:example.org
                Excluded:
                  IP:0.0.0.0/0.0.0.0
                  IP:0:0:0:0:0:0:0:0/0:0:0:0:0:0:0:0
            X509v3 Subject Key Identifier: 
                2B:E4:E5:0A:30:A6:45:E7:C5:5D:47:E4:E5:E8:86:F4:2B:70:EA:A0
    Signature Algorithm: sha256WithRSAEncryption
    Signature Value:
        11:29:02:cc:99:03:85:bf:5a:63:9c:c4:0b:73:69:05:3a:61:
        b6:59:1b:fb:99:6a:81:d9:f1:11:1d:35:c3:a4:04:df:91:26:
        f1:31:84:94:8c:bd:54:0c:12:2e:64:3f:1c:2d:c1:13:82:84:
        a4:32:c9:d8:38:83:9a:bf:6e:3b:4f:8f:b0:e6:ff:e7:95:b8:
        fc:3e:27:ef:59:ef:50:c4:df:65:c6:75:9e:aa:80:a7:24:86:
        7e:0e:80:c4:eb:e2:75:70:93:e6:5e:e1:68:87:15:07:00:f5:
        fb:3f:4e:df:48:02:ef:af:8f:19:9a:bf:64:52:14:a3:a3:e4:
        b8:2d:c7:0e:bc:5f:89:a7:b1:32:1b:a5:75:d2:7f:f2:82:1b:
        e1:32:90:1c:8e:e3:07:f4:7a:70:a3:15:71:2f:77:2d:6f:37:
        2d:68:2c:0f:65:a0:89:ef:01:a4:90:88:be:ef:59:6a:25:60:
        f6:3b:65:22:f3:6c:a4:61:2b:1e:4a:e4:e7:e3:5b:99:cc:47:
        0e:01:a2:6c:28:1f:34:3c:a7:9f:62:33:3a:32:64:7a:5a:15:
        03:c9:03:a2:6b:1d:70:19:f0:36:ef:1e:8b:30:f3:c4:8e:37:
        27:27:8b:53:45:d7:38:ab:a0:7c:4d:76:b3:c7:f1:f4:62:5b:
        0a:d1:92:8a:23:e8:e5:99:2f:20:65:e0:30:8e:db:5d:84:e2:
        8a:c2:c7:e2:84:86:bb:fb:ff:4f:5e:a3:de:fb:4f:7a:ff:1a:
        fe:ff:6a:47:34:c6:cb:59:d0:8b:75:69:7a:eb:f8:8a:c0:cc:
        8b:33:3b:5d:5c:e0:42:b3:3e:22:a3:a1:32:2c:18:18:98:f7:
        87:3a:ab:ea:92:93:6b:33:9f:89:54:ff:2c:d8:99:c0:df:d3:
        93:ec:ea:c2:1c:50:e8:c8:51:a0:af:1c:a1:93:1d:eb:7d:92:
        0c:38:8a:ba:bf:83:3a:f9:24:48:29:ab:e8:ec:cf:f3:13:3e:
        02:a9:83:f6:20:b6:01:a3:5c:a7:a8:a8:af:1f:0a:27:4a:58:
        08:74:99:fd:85:02:8a:4b:68:7d:8d:c0:2a:7e:75:93:e7:e4:
        07:69:39:d8:71:a3:7a:00:ec:ad:a1:78:1c:62:14:e1:7d:30:
        80:2f:ff:ca:42:05:a7:1a:ce:b5:24:0b:f2:26:8e:df:41:a8:
        27:f1:f4:f7:e9:c9:da:eb:e2:36:29:84:8e:13:6a:c0:7c:47:
        db:23:22:e0:ff:67:d2:0c:4c:b9:49:5a:1a:e9:89:5e:20:23:
        89:45:92:74:fe:d1:04:fe:d1:f0:0c:ff:11:bc:cd:7e:e4:52:
        0f:9f:94:4d:a9:c1:44:b0
-----BEGIN CERTIFICATE-----
MIIGeTCCBGGgAwIBAgIRAP1/IHquJNNKKoQSkbiqEpYwDQYJKoZIhvcNAQELBQAw
MDELMAkGA1UEBhMCRVMxDzANBgNVBAoMBlRlbGVjbzEQMA4GA1UEAwwHUm9vdCBD
QTAeFw0yMjEyMjExNzU1MzVaFw0zMjEyMTgxNzU1MzVaMC8xCzAJBgNVBAYTAkVT
MQ8wDQYDVQQKDAZUZWxlY28xDzANBgNVBAMMBlN1YiBDQTCCAiIwDQYJKoZIhvcN
AQEBBQADggIPADCCAgoCggIBAI+JWWAH2zsY1ukJGCL09PDCOqollEQet7igFVvK
t2JnuYSfpSE6PgaIORTGzMcytyhxww33erYeIw7pDCRfObUnHRjRprswrfZZ/Q/3
3PXtJiyQP0Ae6pWEi0EvxoGl34FB6W1gh9xX/Wc8o948RvSUDJKoRfaOux9xod+P
EHPyvuk1bxP+9co0JDUbE18IJe3awTi83riui6OKCLk7iWHbjpYYnU+rVwE3ltem
W9NNgiGKAjv0zEQbxJsheWOtrNxamL3iwhFHnrBkdOelLdKHvzjNaopW/iYePFXX
OZwdvqumpjWTF8jFFGoDLhhF6NweL/3AierBvq9+YW7bTbPMY4dLDO+2fsO3nMV0
PJcmRko7GqOsBln5chckojCx5ajp565apY/ywWy3l+BlbVF2wtaBOcUNDLASQ/Vx
Qt0kBYBSTLEkuXMRtwqi7LIVyB24rg1SJUKEQQzfQVsZknokQGY1YX4S5Q1fiA6/
Rvytd0hCPDtpLJ6RzRj5bxtFmx0A+AZmeXRkip9juVlRDXEO9EJTRkNL3LMgu9xM
W93/HimnzD8LzSd264D4XEjUH64zv5gTWEkhjVVhTfvMAvMovKzvyz/SZAADy3bD
t+bTkVMTWIXIQXM52bEVEjei0ginGnnscaGRTk99qjMkFgdOjmlUSSdfNuuzyVdX
9gVdAgMBAAGjggGNMIIBiTBwBggrBgEFBQcBAQRkMGIwMAYIKwYBBQUHMAKGJGh0
dHA6Ly9yb290LWNhLnRlbGVjby5lcy9yb290LWNhLmNydDAuBggrBgEFBQcwAYYi
aHR0cDovL29jc3Aucm9vdC1jYS50ZWxlY28uZXM6OTA4MDAfBgNVHSMEGDAWgBTl
Gm/XWBQTCHvxy8sVLJIEv/14+DASBgNVHRMBAf8ECDAGAQH/AgEAMDUGA1UdHwQu
MCwwKqAooCaGJGh0dHA6Ly9yb290LWNhLnRlbGVjby5lcy9yb290LWNhLmNybDAd
BgNVHSUEFjAUBggrBgEFBQcDAgYIKwYBBQUHAwEwDgYDVR0PAQH/BAQDAgEGMFsG
A1UdHgRUMFKgHjANggtleGFtcGxlLmNvbTANggtleGFtcGxlLm9yZ6EwMAqHCAAA
AAAAAAAAMCKHIAAAAAAAAAAAAAAAAAAAAAAAAAAAAAAAAAAAAAAAAAAAMB0GA1Ud
DgQWBBQr5OUKMKZF58VdR+Tl6Ib0K3DqoDANBgkqhkiG9w0BAQsFAAOCAgEAESkC
zJkDhb9aY5zEC3NpBTphtlkb+5lqgdnxER01w6QE35Em8TGElIy9VAwSLmQ/HC3B
E4KEpDLJ2DiDmr9uO0+PsOb/55W4/D4n71nvUMTfZcZ1nqqApySGfg6AxOvidXCT
5l7haIcVBwD1+z9O30gC76+PGZq/ZFIUo6PkuC3HDrxfiaexMhulddJ/8oIb4TKQ
HI7jB/R6cKMVcS93LW83LWgsD2Wgie8BpJCIvu9ZaiVg9jtlIvNspGErHkrk5+Nb
mcxHDgGibCgfNDynn2IzOjJkeloVA8kDomsdcBnwNu8eizDzxI43JyeLU0XXOKug
fE12s8fx9GJbCtGSiiPo5ZkvIGXgMI7bXYTiisLH4oSGu/v/T16j3vtPev8a/v9q
RzTGy1nQi3Vpeuv4isDMizM7XVzgQrM+IqOhMiwYGJj3hzqr6pKTazOfiVT/LNiZ
wN/Tk+zqwhxQ6MhRoK8coZMd632SDDiKur+DOvkkSCmr6OzP8xM+AqmD9iC2AaNc
p6iorx8KJ0pYCHSZ/YUCiktofY3AKn51k+fkB2k52HGjegDsraF4HGIU4X0wgC//
ykIFpxrOtSQL8iaO30GoJ/H09+nJ2uviNimEjhNqwHxH2yMi4P9n0gxMuUlaGumJ
XiAjiUWSdP7RBP7R8Az/EbzNfuRSD5+UTanBRLA=
-----END CERTIFICATE-----
