Certificate:
    Data:
        Version: 3 (0x2)
        Serial Number:
            98:ff:b4:8c:ae:25:54:a3:70:d6:9d:5d:33:5c:0b:03
        Signature Algorithm: sha256WithRSAEncryption
        Issuer: C=ES, O=Teleco, CN=Sub CA Server
        Validity
            Not Before: Dec 23 00:23:01 2022 GMT
            Not After : Dec 20 00:23:01 2032 GMT
        Subject: C=ES, O=Teleco, CN=servidor_sub
        Subject Public Key Info:
            Public Key Algorithm: rsaEncryption
                Public-Key: (2048 bit)
                Modulus:
                    00:b6:e1:35:02:c9:48:1d:a0:e7:c9:83:00:8c:b9:
                    31:29:2a:11:00:4b:6e:03:44:88:f5:df:2c:07:36:
                    c6:fb:fb:83:9f:07:c7:0c:85:7b:a1:05:b4:e9:99:
                    3b:42:e9:46:f4:a6:d3:a0:15:74:43:3e:39:1c:9f:
                    ed:fc:a5:29:30:8a:36:f6:67:14:9c:d0:b2:31:29:
                    b4:c1:2e:54:17:3d:20:39:8c:e2:da:8b:20:4f:11:
                    ab:c5:73:4a:80:59:66:75:00:43:8e:aa:f1:9d:ec:
                    59:26:71:64:38:99:94:4b:51:44:ec:24:59:8c:67:
                    2a:41:86:7f:b4:60:a6:49:2b:93:86:6d:92:ac:8b:
                    13:f5:b6:8f:51:8f:ac:0a:32:32:5a:c4:17:82:73:
                    f6:d2:48:6b:90:26:94:a7:84:78:b9:69:14:af:e4:
                    fa:18:62:2c:a7:2c:17:89:06:2f:4e:67:98:1c:6c:
                    68:45:49:b7:e7:f9:df:63:77:39:20:52:fd:a3:61:
                    f0:49:e6:65:c3:40:d1:35:6b:38:db:00:54:f8:4f:
                    2c:72:c6:fd:9e:2e:81:17:80:9b:12:0e:84:bc:c6:
                    a7:53:fd:fd:93:66:a4:b3:cf:d3:3c:a4:66:15:95:
                    b9:97:ce:ed:02:57:71:38:f1:02:93:94:44:2c:f0:
                    e4:7f
                Exponent: 65537 (0x10001)
        X509v3 extensions:
            Authority Information Access: 
                OCSP - URI:http://localhost:9080
            X509v3 Authority Key Identifier: 
                06:7D:4D:15:F9:1F:06:EB:4C:70:04:37:8C:F3:17:99:0F:12:D4:39
            X509v3 Basic Constraints: critical
                CA:FALSE
            X509v3 CRL Distribution Points: 
                Full Name:
                  URI:http://sub-ca-server.teleco.es/sub-ca-server.crl
            X509v3 Extended Key Usage: 
                TLS Web Client Authentication, TLS Web Server Authentication
            X509v3 Key Usage: critical
                Digital Signature, Key Encipherment
            X509v3 Subject Key Identifier: 
                6B:FA:79:11:CC:51:4D:79:D2:3C:91:4C:EB:8C:51:A3:C7:02:34:02
            X509v3 Subject Alternative Name: 
                DNS:servidor_sub
    Signature Algorithm: sha256WithRSAEncryption
    Signature Value:
        66:06:8b:98:4d:1d:fb:95:cc:e7:ef:7f:06:4c:c4:c9:bd:7d:
        d9:6a:a3:6a:11:ff:4c:a2:65:db:c0:1b:09:dd:97:a2:b9:80:
        8d:6e:8f:1f:f9:83:1e:89:92:e2:bc:ee:87:8a:6c:29:bb:7a:
        37:17:fa:ce:82:69:11:9a:d9:64:a8:61:eb:86:0c:2c:9c:10:
        6c:9f:c5:e1:fd:18:75:55:cc:e7:4c:07:37:b3:a8:0c:86:d6:
        f3:c8:fd:a7:fd:1a:c7:1b:bc:ef:d6:4b:53:b2:27:99:22:a1:
        b3:af:68:79:a8:87:e8:33:1d:37:0c:31:66:97:45:be:c4:7c:
        3c:d1:5b:0a:65:f9:65:48:43:94:8d:d6:a8:5f:2e:5a:d6:ef:
        c4:85:72:5b:32:a6:85:14:6d:2e:0c:6b:e3:3c:05:51:73:5e:
        be:ab:39:58:f3:6d:34:8c:ad:b1:b6:8d:6a:0d:9d:7b:36:fc:
        67:a9:c3:7b:d1:db:b4:1a:0b:bf:bf:49:46:be:b5:2a:e9:48:
        9e:59:0d:c7:87:55:6c:f2:fc:42:04:14:2b:e5:0e:3e:35:27:
        32:e8:0e:a3:67:c1:95:97:6c:31:58:e3:66:66:f2:20:f7:2e:
        ab:fc:86:43:05:d1:3f:37:f7:7f:5f:4c:1c:a8:45:5c:55:d6:
        a0:b6:3d:1b:e2:a0:21:10:7a:43:35:7f:e4:c5:18:e5:23:83:
        d8:cd:4f:67:f5:c6:e6:60:d9:dd:cc:22:70:be:5c:79:ec:12:
        c5:ea:2c:fa:8d:9b:3c:88:d3:37:7b:79:13:bc:19:c3:82:c6:
        76:b7:d1:ab:c4:7a:45:ad:aa:49:4f:48:8e:73:ed:8a:b6:3b:
        75:68:d6:11:ad:46:96:b7:18:3f:46:9d:3e:40:12:c9:20:c2:
        57:0c:e8:e1:f6:d0:d9:46:fb:68:40:04:b0:5d:95:bf:f0:fc:
        74:33:39:ba:55:94:58:e2:ae:73:06:a8:43:67:ff:29:1e:ee:
        b2:7a:a7:94:93:ec:b9:cc:5d:9d:6d:25:5b:44:6a:1c:0c:82:
        d7:00:fd:dd:9d:46:3a:dd:43:b1:d7:cb:3d:99:4a:d1:25:99:
        f0:08:2b:33:77:d0:9f:5f:9f:04:cf:cf:c7:b8:bf:7f:f8:35:
        de:ae:83:84:3b:c8:f1:a1:7a:65:a8:6e:bf:3a:8c:76:84:d2:
        78:5f:91:c9:0a:d6:86:9f:88:90:f8:f5:46:32:74:9a:34:cb:
        9b:4b:fc:3f:02:cd:cd:14:2b:e6:8f:92:b1:02:b9:67:e2:eb:
        d2:8a:73:3f:e4:47:4b:ca:ff:f7:8e:64:c9:88:63:d5:12:39:
        06:a4:af:5c:68:09:8a:db
-----BEGIN CERTIFICATE-----
MIIFCDCCAvCgAwIBAgIRAJj/tIyuJVSjcNadXTNcCwMwDQYJKoZIhvcNAQELBQAw
NjELMAkGA1UEBhMCRVMxDzANBgNVBAoMBlRlbGVjbzEWMBQGA1UEAwwNU3ViIENB
IFNlcnZlcjAeFw0yMjEyMjMwMDIzMDFaFw0zMjEyMjAwMDIzMDFaMDUxCzAJBgNV
BAYTAkVTMQ8wDQYDVQQKDAZUZWxlY28xFTATBgNVBAMMDHNlcnZpZG9yX3N1YjCC
ASIwDQYJKoZIhvcNAQEBBQADggEPADCCAQoCggEBALbhNQLJSB2g58mDAIy5MSkq
EQBLbgNEiPXfLAc2xvv7g58HxwyFe6EFtOmZO0LpRvSm06AVdEM+ORyf7fylKTCK
NvZnFJzQsjEptMEuVBc9IDmM4tqLIE8Rq8VzSoBZZnUAQ46q8Z3sWSZxZDiZlEtR
ROwkWYxnKkGGf7Rgpkkrk4ZtkqyLE/W2j1GPrAoyMlrEF4Jz9tJIa5AmlKeEeLlp
FK/k+hhiLKcsF4kGL05nmBxsaEVJt+f532N3OSBS/aNh8EnmZcNA0TVrONsAVPhP
LHLG/Z4ugReAmxIOhLzGp1P9/ZNmpLPP0zykZhWVuZfO7QJXcTjxApOURCzw5H8C
AwEAAaOCARAwggEMMDEGCCsGAQUFBwEBBCUwIzAhBggrBgEFBQcwAYYVaHR0cDov
L2xvY2FsaG9zdDo5MDgwMB8GA1UdIwQYMBaAFAZ9TRX5HwbrTHAEN4zzF5kPEtQ5
MAwGA1UdEwEB/wQCMAAwQQYDVR0fBDowODA2oDSgMoYwaHR0cDovL3N1Yi1jYS1z
ZXJ2ZXIudGVsZWNvLmVzL3N1Yi1jYS1zZXJ2ZXIuY3JsMB0GA1UdJQQWMBQGCCsG
AQUFBwMCBggrBgEFBQcDATAOBgNVHQ8BAf8EBAMCBaAwHQYDVR0OBBYEFGv6eRHM
UU150jyRTOuMUaPHAjQCMBcGA1UdEQQQMA6CDHNlcnZpZG9yX3N1YjANBgkqhkiG
9w0BAQsFAAOCAgEAZgaLmE0d+5XM5+9/BkzEyb192WqjahH/TKJl28AbCd2XormA
jW6PH/mDHomS4rzuh4psKbt6Nxf6zoJpEZrZZKhh64YMLJwQbJ/F4f0YdVXM50wH
N7OoDIbW88j9p/0axxu879ZLU7InmSKhs69oeaiH6DMdNwwxZpdFvsR8PNFbCmX5
ZUhDlI3WqF8uWtbvxIVyWzKmhRRtLgxr4zwFUXNevqs5WPNtNIytsbaNag2dezb8
Z6nDe9HbtBoLv79JRr61KulInlkNx4dVbPL8QgQUK+UOPjUnMugOo2fBlZdsMVjj
ZmbyIPcuq/yGQwXRPzf3f19MHKhFXFXWoLY9G+KgIRB6QzV/5MUY5SOD2M1PZ/XG
5mDZ3cwicL5ceewSxeos+o2bPIjTN3t5E7wZw4LGdrfRq8R6Ra2qSU9IjnPtirY7
dWjWEa1GlrcYP0adPkASySDCVwzo4fbQ2Ub7aEAEsF2Vv/D8dDM5ulWUWOKucwao
Q2f/KR7usnqnlJPsucxdnW0lW0RqHAyC1wD93Z1GOt1DsdfLPZlK0SWZ8AgrM3fQ
n1+fBM/Px7i/f/g13q6DhDvI8aF6ZahuvzqMdoTSeF+RyQrWhp+IkPj1RjJ0mjTL
m0v8PwLNzRQr5o+SsQK5Z+Lr0opzP+RHS8r/945kyYhj1RI5BqSvXGgJits=
-----END CERTIFICATE-----
