Certificate:
    Data:
        Version: 3 (0x2)
        Serial Number:
            98:ff:b4:8c:ae:25:54:a3:70:d6:9d:5d:33:5c:0b:04
        Signature Algorithm: sha256WithRSAEncryption
        Issuer: C=ES, O=Teleco, CN=Sub CA Server
        Validity
            Not Before: Dec 29 22:07:09 2022 GMT
            Not After : Feb  2 22:07:09 2024 GMT
        Subject: C=ES, O=Teleco, CN=OCSP Sub Responder
        Subject Public Key Info:
            Public Key Algorithm: rsaEncryption
                Public-Key: (2048 bit)
                Modulus:
                    00:d8:5a:31:80:87:c3:47:9b:33:74:12:9d:5c:f2:
                    93:8b:67:fd:b5:af:a8:01:16:b1:59:7d:12:48:88:
                    09:c7:54:98:12:f1:89:43:69:94:bb:1c:b8:8a:94:
                    c3:06:7b:07:1b:a6:41:a5:9a:e7:d4:71:98:12:78:
                    dd:fa:90:68:6c:85:e3:f9:8f:3c:d7:ac:5e:d6:25:
                    69:41:05:5d:9f:87:b9:80:02:81:89:f6:39:79:57:
                    73:fb:32:cf:4f:7f:85:65:7a:32:8b:e9:72:71:2d:
                    19:94:0b:fb:2f:5c:fe:03:e6:7f:dd:2b:95:3a:8c:
                    b4:d3:fe:69:30:02:90:20:ce:8f:3c:48:a2:ac:97:
                    43:93:be:c8:23:76:85:52:66:33:7a:ba:7a:2d:e6:
                    1c:80:de:d5:22:c8:20:de:5e:2d:47:d6:ef:eb:67:
                    d3:25:34:59:b1:c3:1f:f7:d5:d0:60:2e:3d:da:45:
                    41:24:1a:ae:b4:0a:2c:46:06:9b:a9:4e:1e:20:74:
                    00:38:7a:b2:14:57:92:56:7c:5e:fa:df:3f:40:0e:
                    96:2f:de:73:46:84:50:19:ea:64:a1:85:b8:02:96:
                    52:55:89:0d:c3:d7:87:23:41:9d:d2:86:f9:27:95:
                    d7:26:46:44:39:fd:f6:9f:78:a4:2c:04:db:6c:1c:
                    22:59
                Exponent: 65537 (0x10001)
        X509v3 extensions:
            X509v3 Authority Key Identifier: 
                06:7D:4D:15:F9:1F:06:EB:4C:70:04:37:8C:F3:17:99:0F:12:D4:39
            X509v3 Basic Constraints: critical
                CA:FALSE
            X509v3 Extended Key Usage: 
                OCSP Signing
            X509v3 Key Usage: critical
                Digital Signature
            X509v3 Subject Key Identifier: 
                83:D6:B6:A6:A2:E2:25:82:6B:B6:E0:C8:8C:7A:19:A6:8E:04:C0:D3
    Signature Algorithm: sha256WithRSAEncryption
    Signature Value:
        53:61:15:5f:16:df:bc:a6:48:f2:37:ae:06:31:91:ba:ba:23:
        e4:66:8c:d0:53:e3:3c:8f:a1:a1:81:82:70:ee:e0:89:f1:66:
        7e:21:5f:7f:8c:db:bf:15:09:e4:18:d1:a9:02:34:ae:17:ed:
        92:ff:63:17:4e:60:bb:46:50:5a:2d:f5:91:f9:36:57:19:e1:
        ba:9e:89:a8:bc:e5:f4:64:ae:a8:2f:a9:93:5e:f6:42:a1:ab:
        7e:74:60:ef:6d:87:6d:94:99:32:f7:1c:47:b9:66:ab:8a:91:
        cb:ac:cf:6a:c8:3a:cb:f3:c6:dd:ae:89:80:c0:c7:ce:37:f5:
        87:ed:8a:48:63:d5:54:9b:61:18:68:69:8d:1b:b0:62:ed:00:
        43:90:1b:fc:ab:68:71:82:5e:fe:59:55:c4:43:e9:72:89:e3:
        57:93:b3:55:a7:53:dc:20:f1:95:47:9d:30:06:13:9f:2d:a7:
        04:93:70:de:e7:f0:12:b1:5b:f4:77:07:45:4e:ab:ac:30:56:
        ac:ea:47:64:c4:2d:5e:9d:5b:9d:65:90:47:59:69:e7:9c:cc:
        74:de:5e:02:3f:aa:73:3e:d2:03:1b:92:a5:71:b9:d8:73:72:
        0c:9e:45:19:e7:e1:db:03:50:e6:cc:ab:2e:1a:8c:72:f1:93:
        9a:1e:a8:0b:46:4d:50:97:40:0f:40:e9:3b:34:bc:b7:32:ed:
        63:34:99:a6:1f:b2:1d:69:70:2e:7f:f2:6f:56:2d:17:5d:0f:
        96:e7:e8:14:f3:7b:b5:6e:e5:93:c2:45:c1:fd:3c:0f:28:9f:
        78:f1:bc:46:5e:84:12:4e:86:e5:c6:20:44:a3:7c:ed:b0:cf:
        79:56:67:68:9d:d3:6d:45:df:9b:e5:34:20:ad:5d:50:f1:21:
        50:1d:2d:85:68:e4:02:7d:e1:cd:9a:54:6f:2b:b8:cd:e2:4a:
        b0:9e:01:7b:40:b0:56:83:48:5b:4e:7b:1b:88:15:60:3a:85:
        63:22:18:81:f3:31:3c:2b:47:f5:d1:ba:19:d1:87:fc:8d:5b:
        d3:8f:a7:4a:da:09:9a:68:b5:8d:64:a3:03:b3:a8:33:93:58:
        b0:fa:d8:30:9c:32:83:9a:82:8b:a9:43:07:1e:87:17:c6:f4:
        7d:8d:e7:9a:7a:81:0e:6a:72:a2:fd:27:e7:ee:4e:9c:f1:c0:
        bd:5a:0e:c7:50:f5:b0:32:5d:bf:f7:bd:48:51:48:c2:07:1e:
        4d:fd:79:3c:30:b8:a6:eb:4e:e2:d0:80:3a:97:fe:cf:69:f8:
        9b:2c:e5:91:f3:6b:af:78:ca:13:f1:1d:e2:80:63:64:67:9e:
        8a:d9:1c:c9:dd:8c:54:cc
-----BEGIN CERTIFICATE-----
MIIEcTCCAlmgAwIBAgIRAJj/tIyuJVSjcNadXTNcCwQwDQYJKoZIhvcNAQELBQAw
NjELMAkGA1UEBhMCRVMxDzANBgNVBAoMBlRlbGVjbzEWMBQGA1UEAwwNU3ViIENB
IFNlcnZlcjAeFw0yMjEyMjkyMjA3MDlaFw0yNDAyMDIyMjA3MDlaMDsxCzAJBgNV
BAYTAkVTMQ8wDQYDVQQKDAZUZWxlY28xGzAZBgNVBAMMEk9DU1AgU3ViIFJlc3Bv
bmRlcjCCASIwDQYJKoZIhvcNAQEBBQADggEPADCCAQoCggEBANhaMYCHw0ebM3QS
nVzyk4tn/bWvqAEWsVl9EkiICcdUmBLxiUNplLscuIqUwwZ7BxumQaWa59RxmBJ4
3fqQaGyF4/mPPNesXtYlaUEFXZ+HuYACgYn2OXlXc/syz09/hWV6MovpcnEtGZQL
+y9c/gPmf90rlTqMtNP+aTACkCDOjzxIoqyXQ5O+yCN2hVJmM3q6ei3mHIDe1SLI
IN5eLUfW7+tn0yU0WbHDH/fV0GAuPdpFQSQarrQKLEYGm6lOHiB0ADh6shRXklZ8
XvrfP0AOli/ec0aEUBnqZKGFuAKWUlWJDcPXhyNBndKG+SeV1yZGRDn99p94pCwE
22wcIlkCAwEAAaN1MHMwHwYDVR0jBBgwFoAUBn1NFfkfButMcAQ3jPMXmQ8S1Dkw
DAYDVR0TAQH/BAIwADATBgNVHSUEDDAKBggrBgEFBQcDCTAOBgNVHQ8BAf8EBAMC
B4AwHQYDVR0OBBYEFIPWtqai4iWCa7bgyIx6GaaOBMDTMA0GCSqGSIb3DQEBCwUA
A4ICAQBTYRVfFt+8pkjyN64GMZG6uiPkZozQU+M8j6GhgYJw7uCJ8WZ+IV9/jNu/
FQnkGNGpAjSuF+2S/2MXTmC7RlBaLfWR+TZXGeG6nomovOX0ZK6oL6mTXvZCoat+
dGDvbYdtlJky9xxHuWaripHLrM9qyDrL88bdromAwMfON/WH7YpIY9VUm2EYaGmN
G7Bi7QBDkBv8q2hxgl7+WVXEQ+lyieNXk7NVp1PcIPGVR50wBhOfLacEk3De5/AS
sVv0dwdFTqusMFas6kdkxC1enVudZZBHWWnnnMx03l4CP6pzPtIDG5KlcbnYc3IM
nkUZ5+HbA1DmzKsuGoxy8ZOaHqgLRk1Ql0APQOk7NLy3Mu1jNJmmH7IdaXAuf/Jv
Vi0XXQ+W5+gU83u1buWTwkXB/TwPKJ948bxGXoQSToblxiBEo3ztsM95VmdondNt
Rd+b5TQgrV1Q8SFQHS2FaOQCfeHNmlRvK7jN4kqwngF7QLBWg0hbTnsbiBVgOoVj
IhiB8zE8K0f10boZ0Yf8jVvTj6dK2gmaaLWNZKMDs6gzk1iw+tgwnDKDmoKLqUMH
HocXxvR9jeeaeoEOanKi/Sfn7k6c8cC9Wg7HUPWwMl2/971IUUjCBx5N/Xk8MLim
607i0IA6l/7PafibLOWR82uveMoT8R3igGNkZ56K2RzJ3YxUzA==
-----END CERTIFICATE-----
