Certificate:
    Data:
        Version: 3 (0x2)
        Serial Number:
            b1:20:10:a1:d9:fc:89:a2:04:81:d0:dd:d7:43:50:f9
        Signature Algorithm: sha256WithRSAEncryption
        Issuer: C=ES, O=Teleco, CN=Sub CA Client
        Validity
            Not Before: Dec 23 00:29:22 2022 GMT
            Not After : Dec 20 00:29:22 2032 GMT
        Subject: C=ES, O=Teleco, CN=cliente_sub
        Subject Public Key Info:
            Public Key Algorithm: rsaEncryption
                Public-Key: (2048 bit)
                Modulus:
                    00:ba:14:af:58:79:eb:1b:e7:f3:1b:8a:1d:ef:6f:
                    35:4b:1d:ad:6e:75:7c:7e:7b:5b:1c:4e:ff:cc:dc:
                    92:0e:90:c7:1b:69:a7:ce:f2:62:7f:22:5b:e2:26:
                    8b:c9:2c:93:16:05:d7:1e:06:85:82:2d:e1:62:8c:
                    38:96:cf:fd:aa:8c:3c:e3:03:8d:4f:7e:39:2c:fb:
                    6a:e9:13:98:9b:93:8f:15:41:02:e7:63:1e:a4:eb:
                    36:71:84:39:8b:06:6b:e3:a4:25:6f:ac:83:cb:3c:
                    d4:7f:84:18:e8:67:72:c2:04:ee:36:ee:51:84:d5:
                    6b:15:b5:31:54:4b:0d:fb:57:eb:56:06:1d:81:66:
                    c3:19:c0:8b:e2:95:56:61:1c:39:a9:86:bd:42:3a:
                    16:cc:91:c2:6b:6f:1c:74:04:56:a6:f8:93:db:e9:
                    0e:e4:43:d5:d6:aa:1f:28:17:93:94:22:e8:2f:f0:
                    4b:d5:8b:ac:5e:c1:ce:46:58:e6:46:b7:07:51:ee:
                    55:d5:3e:88:2c:a3:8f:bb:10:ef:de:e9:e3:b4:a6:
                    45:c1:84:45:e9:80:85:b3:01:43:ea:94:5c:52:68:
                    df:cb:02:02:c5:e9:84:5d:2e:5c:ad:80:ea:62:24:
                    4a:c6:3c:ba:cb:5a:59:92:aa:22:8d:97:6e:eb:50:
                    69:ef
                Exponent: 65537 (0x10001)
        X509v3 extensions:
            Authority Information Access: 
                CA Issuers - URI:http://sub-ca-client.teleco.es/sub-ca-client.crt
                OCSP - URI:http://ocsp.sub-ca-client.teleco.es:9081
            X509v3 Authority Key Identifier: 
                34:D8:77:60:72:33:AF:BF:16:58:21:DD:4F:3D:E1:E9:1E:C8:43:59
            X509v3 Basic Constraints: critical
                CA:FALSE
            X509v3 CRL Distribution Points: 
                Full Name:
                  URI:http://sub-ca-client.teleco.es/sub-ca-client.crl
            X509v3 Extended Key Usage: 
                TLS Web Client Authentication
            X509v3 Key Usage: critical
                Digital Signature
            X509v3 Subject Key Identifier: 
                EA:E4:B3:31:4B:94:E8:AD:0A:27:84:3A:3F:6E:C1:E3:C8:AF:F9:5B
    Signature Algorithm: sha256WithRSAEncryption
    Signature Value:
        3c:bb:ef:a8:fe:53:cf:71:d8:4a:ee:29:98:bd:9f:38:1d:3c:
        45:df:e6:17:a5:18:30:c2:f5:86:83:55:d1:13:93:da:a2:3b:
        ba:d7:80:52:33:ec:98:57:3a:88:7f:fc:ee:47:43:74:9c:ac:
        28:4e:72:4d:f8:6a:ce:90:fd:b8:89:54:ee:d4:01:aa:a6:a8:
        78:cc:7e:54:2e:ed:21:18:c9:3d:68:2e:66:77:41:28:ab:47:
        01:7e:44:8a:6f:fc:36:20:5e:58:f4:1c:ca:69:ff:ed:71:a2:
        69:86:9f:94:c2:75:b5:9d:ba:05:f6:f2:d5:69:48:e8:43:76:
        5a:91:7e:3a:cc:59:28:69:17:cc:10:f4:22:8a:47:54:ba:cc:
        4d:c0:cd:d3:37:9a:14:56:75:ed:1b:ab:5c:a8:6e:da:65:07:
        6c:67:51:56:c0:a1:42:eb:2d:2e:65:e9:dc:f9:c9:96:11:a4:
        56:c4:69:ca:95:fe:70:ec:a4:b5:fc:f9:a7:bc:bb:e7:d3:5d:
        bc:72:5e:ec:44:72:f3:2f:d1:2c:05:6b:a4:cc:3b:4e:95:df:
        49:90:29:cd:83:0e:ce:4c:46:df:cd:5f:8c:94:55:90:8b:1e:
        2b:18:cf:9d:65:f5:f2:0a:8d:fe:f0:b8:03:7d:fe:22:a0:3d:
        27:d9:51:e3:8d:cc:a0:f3:ed:67:69:fd:f3:4a:53:7b:69:d6:
        7a:7c:fd:cf:1e:10:d8:e3:fc:36:9d:f7:52:6b:c4:a9:06:29:
        86:1c:15:4a:45:cb:52:2a:f5:0c:be:f2:77:59:6e:f1:ea:ab:
        f6:79:0c:13:98:d9:7a:ba:2f:41:80:f6:16:f8:89:0e:7c:c4:
        77:b2:1e:88:4f:ff:b8:56:97:7c:6d:6f:f5:fb:f4:47:39:03:
        d9:6f:4b:6e:2a:b7:36:0a:af:53:e2:c8:4c:7a:1c:db:f2:3d:
        4f:53:9a:52:bd:93:2f:10:10:85:51:d5:ee:33:7a:a7:ee:e9:
        9d:a6:1c:e3:88:0e:ae:8d:48:3f:15:eb:c3:4c:bb:da:b8:b2:
        d4:68:43:68:64:c3:52:91:f7:86:c1:8a:02:ba:46:fb:a5:3b:
        8b:ce:ea:f2:82:ae:4b:84:a0:2f:a5:05:f5:00:ae:93:84:92:
        db:b8:f8:26:69:d9:f7:9d:ba:b0:6a:c0:6e:02:c5:27:36:80:
        d8:73:41:71:bc:83:da:2c:83:0b:2c:48:aa:ba:52:3f:b3:11:
        fd:bc:89:b1:87:24:20:ae:c2:00:2c:9a:b8:e8:5b:ae:a7:f9:
        71:92:c1:87:ed:0d:d4:86:8d:73:dd:9c:0f:d9:3c:88:3e:38:
        f8:37:94:4e:f6:f9:00:ae
-----BEGIN CERTIFICATE-----
MIIFNjCCAx6gAwIBAgIRALEgEKHZ/ImiBIHQ3ddDUPkwDQYJKoZIhvcNAQELBQAw
NjELMAkGA1UEBhMCRVMxDzANBgNVBAoMBlRlbGVjbzEWMBQGA1UEAwwNU3ViIENB
IENsaWVudDAeFw0yMjEyMjMwMDI5MjJaFw0zMjEyMjAwMDI5MjJaMDQxCzAJBgNV
BAYTAkVTMQ8wDQYDVQQKDAZUZWxlY28xFDASBgNVBAMMC2NsaWVudGVfc3ViMIIB
IjANBgkqhkiG9w0BAQEFAAOCAQ8AMIIBCgKCAQEAuhSvWHnrG+fzG4od7281Sx2t
bnV8fntbHE7/zNySDpDHG2mnzvJifyJb4iaLySyTFgXXHgaFgi3hYow4ls/9qow8
4wONT345LPtq6ROYm5OPFUEC52MepOs2cYQ5iwZr46Qlb6yDyzzUf4QY6GdywgTu
Nu5RhNVrFbUxVEsN+1frVgYdgWbDGcCL4pVWYRw5qYa9QjoWzJHCa28cdARWpviT
2+kO5EPV1qofKBeTlCLoL/BL1YusXsHORljmRrcHUe5V1T6ILKOPuxDv3unjtKZF
wYRF6YCFswFD6pRcUmjfywICxemEXS5crYDqYiRKxjy6y1pZkqoijZdu61Bp7wID
AQABo4IBPzCCATswgYIGCCsGAQUFBwEBBHYwdDA8BggrBgEFBQcwAoYwaHR0cDov
L3N1Yi1jYS1jbGllbnQudGVsZWNvLmVzL3N1Yi1jYS1jbGllbnQuY3J0MDQGCCsG
AQUFBzABhihodHRwOi8vb2NzcC5zdWItY2EtY2xpZW50LnRlbGVjby5lczo5MDgx
MB8GA1UdIwQYMBaAFDTYd2ByM6+/Flgh3U894ekeyENZMAwGA1UdEwEB/wQCMAAw
QQYDVR0fBDowODA2oDSgMoYwaHR0cDovL3N1Yi1jYS1jbGllbnQudGVsZWNvLmVz
L3N1Yi1jYS1jbGllbnQuY3JsMBMGA1UdJQQMMAoGCCsGAQUFBwMCMA4GA1UdDwEB
/wQEAwIHgDAdBgNVHQ4EFgQU6uSzMUuU6K0KJ4Q6P27B48iv+VswDQYJKoZIhvcN
AQELBQADggIBADy776j+U89x2EruKZi9nzgdPEXf5helGDDC9YaDVdETk9qiO7rX
gFIz7JhXOoh//O5HQ3ScrChOck34as6Q/biJVO7UAaqmqHjMflQu7SEYyT1oLmZ3
QSirRwF+RIpv/DYgXlj0HMpp/+1xommGn5TCdbWdugX28tVpSOhDdlqRfjrMWShp
F8wQ9CKKR1S6zE3AzdM3mhRWde0bq1yobtplB2xnUVbAoULrLS5l6dz5yZYRpFbE
acqV/nDspLX8+ae8u+fTXbxyXuxEcvMv0SwFa6TMO06V30mQKc2DDs5MRt/NX4yU
VZCLHisYz51l9fIKjf7wuAN9/iKgPSfZUeONzKDz7Wdp/fNKU3tp1np8/c8eENjj
/Dad91JrxKkGKYYcFUpFy1Iq9Qy+8ndZbvHqq/Z5DBOY2Xq6L0GA9hb4iQ58xHey
HohP/7hWl3xtb/X79Ec5A9lvS24qtzYKr1PiyEx6HNvyPU9TmlK9ky8QEIVR1e4z
eqfu6Z2mHOOIDq6NSD8V68NMu9q4stRoQ2hkw1KR94bBigK6RvulO4vO6vKCrkuE
oC+lBfUArpOEktu4+CZp2fedurBqwG4CxSc2gNhzQXG8g9osgwssSKq6Uj+zEf28
ibGHJCCuwgAsmrjoW66n+XGSwYftDdSGjXPdnA/ZPIg+OPg3lE72+QCu
-----END CERTIFICATE-----
